	.file	"task_1.cpp"
	.intel_syntax noprefix
	.text
.Ltext0:
	.file 0 "/home/yurik/4_sem/mdpl/lab_09" "task_1.cpp"
	.section	.text._ZSt23__is_constant_evaluatedv,"axG",@progbits,_ZSt23__is_constant_evaluatedv,comdat
	.weak	_ZSt23__is_constant_evaluatedv
	.type	_ZSt23__is_constant_evaluatedv, @function
_ZSt23__is_constant_evaluatedv:
.LFB1:
	.file 1 "/usr/include/x86_64-linux-gnu/c++/13/bits/c++config.h"
	.loc 1 541 3
	.cfi_startproc
	endbr64
	push	rbp
	.cfi_def_cfa_offset 16
	.cfi_offset 6, -16
	mov	rbp, rsp
	.cfi_def_cfa_register 6
	.loc 1 547 44
	mov	eax, 0
	.loc 1 551 3
	pop	rbp
	.cfi_def_cfa 7, 8
	ret
	.cfi_endproc
.LFE1:
	.size	_ZSt23__is_constant_evaluatedv, .-_ZSt23__is_constant_evaluatedv
	.section	.text._ZNKSt9type_info4nameEv,"axG",@progbits,_ZNKSt9type_info4nameEv,comdat
	.align 2
	.weak	_ZNKSt9type_info4nameEv
	.type	_ZNKSt9type_info4nameEv, @function
_ZNKSt9type_info4nameEv:
.LFB20:
	.file 2 "/usr/include/c++/13/typeinfo"
	.loc 2 103 17
	.cfi_startproc
	endbr64
	push	rbp
	.cfi_def_cfa_offset 16
	.cfi_offset 6, -16
	mov	rbp, rsp
	.cfi_def_cfa_register 6
	mov	QWORD PTR -8[rbp], rdi
	.loc 2 104 14
	mov	rax, QWORD PTR -8[rbp]
	mov	rax, QWORD PTR 8[rax]
	.loc 2 104 22
	movzx	eax, BYTE PTR [rax]
	.loc 2 104 31
	cmp	al, 42
	jne	.L4
	.loc 2 104 33 discriminator 1
	mov	rax, QWORD PTR -8[rbp]
	mov	rax, QWORD PTR 8[rax]
	.loc 2 104 31 discriminator 1
	add	rax, 1
	.loc 2 104 46
	jmp	.L6
.L4:
	.loc 2 104 31 discriminator 2
	mov	rax, QWORD PTR -8[rbp]
	mov	rax, QWORD PTR 8[rax]
.L6:
	.loc 2 104 54
	pop	rbp
	.cfi_def_cfa 7, 8
	ret
	.cfi_endproc
.LFE20:
	.size	_ZNKSt9type_info4nameEv, .-_ZNKSt9type_info4nameEv
	.section	.text._ZNKSt9type_infoeqERKS_,"axG",@progbits,_ZNKSt9type_infoeqERKS_,comdat
	.align 2
	.weak	_ZNKSt9type_infoeqERKS_
	.type	_ZNKSt9type_infoeqERKS_, @function
_ZNKSt9type_infoeqERKS_:
.LFB26:
	.loc 2 194 3
	.cfi_startproc
	endbr64
	push	rbp
	.cfi_def_cfa_offset 16
	.cfi_offset 6, -16
	mov	rbp, rsp
	.cfi_def_cfa_register 6
	sub	rsp, 16
	mov	QWORD PTR -8[rbp], rdi
	mov	QWORD PTR -16[rbp], rsi
	.loc 2 195 37
	call	_ZSt23__is_constant_evaluatedv
	.loc 2 195 5 discriminator 1
	test	al, al
	je	.L8
	.loc 2 196 23
	mov	rax, QWORD PTR -8[rbp]
	cmp	rax, QWORD PTR -16[rbp]
	sete	al
	jmp	.L9
.L8:
	.loc 2 198 9
	mov	rax, QWORD PTR -8[rbp]
	mov	rdx, QWORD PTR 8[rax]
	.loc 2 198 25
	mov	rax, QWORD PTR -16[rbp]
	mov	rax, QWORD PTR 8[rax]
	.loc 2 198 5
	cmp	rdx, rax
	jne	.L10
	.loc 2 199 14
	mov	eax, 1
	jmp	.L9
.L10:
	.loc 2 206 12
	mov	rax, QWORD PTR -8[rbp]
	mov	rax, QWORD PTR 8[rax]
	.loc 2 206 20
	movzx	eax, BYTE PTR [rax]
	.loc 2 206 29
	cmp	al, 42
	je	.L11
	.loc 2 206 49 discriminator 1
	mov	rax, QWORD PTR -16[rbp]
	mov	rdi, rax
	call	_ZNKSt9type_info4nameEv
	mov	rdx, rax
	.loc 2 206 50 discriminator 1
	mov	rax, QWORD PTR -8[rbp]
	mov	rax, QWORD PTR 8[rax]
	.loc 2 206 49 discriminator 1
	mov	rsi, rdx
	mov	rdi, rax
	call	strcmp@PLT
	.loc 2 206 29 discriminator 2
	test	eax, eax
	jne	.L11
	.loc 2 206 29 is_stmt 0 discriminator 3
	mov	eax, 1
	.loc 2 206 75 is_stmt 1
	jmp	.L13
.L11:
	.loc 2 206 29 discriminator 4
	mov	eax, 0
.L13:
	.loc 2 206 75
	nop
.L9:
	.loc 2 210 3
	leave
	.cfi_def_cfa 7, 8
	ret
	.cfi_endproc
.LFE26:
	.size	_ZNKSt9type_infoeqERKS_, .-_ZNKSt9type_infoeqERKS_
	.section	.text._ZnwmPv,"axG",@progbits,_ZnwmPv,comdat
	.weak	_ZnwmPv
	.type	_ZnwmPv, @function
_ZnwmPv:
.LFB39:
	.file 3 "/usr/include/c++/13/new"
	.loc 3 175 1
	.cfi_startproc
	endbr64
	push	rbp
	.cfi_def_cfa_offset 16
	.cfi_offset 6, -16
	mov	rbp, rsp
	.cfi_def_cfa_register 6
	mov	QWORD PTR -8[rbp], rdi
	mov	QWORD PTR -16[rbp], rsi
	.loc 3 175 10
	mov	rax, QWORD PTR -16[rbp]
	.loc 3 175 15
	pop	rbp
	.cfi_def_cfa 7, 8
	ret
	.cfi_endproc
.LFE39:
	.size	_ZnwmPv, .-_ZnwmPv
#APP
	.globl _ZSt21ios_base_library_initv
#NO_APP
	.section	.text._ZNSt16_Sp_counted_baseILN9__gnu_cxx12_Lock_policyE2EE10_M_releaseEv,"axG",@progbits,_ZNSt16_Sp_counted_baseILN9__gnu_cxx12_Lock_policyE2EE10_M_releaseEv,comdat
	.align 2
	.weak	_ZNSt16_Sp_counted_baseILN9__gnu_cxx12_Lock_policyE2EE10_M_releaseEv
	.type	_ZNSt16_Sp_counted_baseILN9__gnu_cxx12_Lock_policyE2EE10_M_releaseEv, @function
_ZNSt16_Sp_counted_baseILN9__gnu_cxx12_Lock_policyE2EE10_M_releaseEv:
.LFB2606:
	.file 4 "/usr/include/c++/13/bits/shared_ptr_base.h"
	.loc 4 318 5
	.cfi_startproc
	endbr64
	push	rbp
	.cfi_def_cfa_offset 16
	.cfi_offset 6, -16
	mov	rbp, rsp
	.cfi_def_cfa_register 6
	sub	rsp, 96
	mov	QWORD PTR -88[rbp], rdi
	.loc 4 321 22
	mov	BYTE PTR -67[rbp], 1
	.loc 4 324 22
	mov	BYTE PTR -66[rbp], 1
	.loc 4 328 22
	mov	BYTE PTR -65[rbp], 1
.LBB79:
.LBB80:
	.loc 4 331 18
	mov	DWORD PTR -64[rbp], 32
	.loc 4 332 18
	mov	DWORD PTR -60[rbp], 32
	.loc 4 333 24
	movabs	rax, 4294967297
	mov	QWORD PTR -40[rbp], rax
	.loc 4 334 9
	mov	rax, QWORD PTR -88[rbp]
	add	rax, 8
	mov	QWORD PTR -32[rbp], rax
	.loc 4 337 23
	mov	rax, QWORD PTR -32[rbp]
	mov	rdx, QWORD PTR [rax]
	.loc 4 337 57 discriminator 1
	movabs	rax, 4294967297
	cmp	rdx, rax
	sete	al
	.loc 4 337 4 discriminator 1
	test	al, al
	je	.L17
	.loc 4 343 37
	mov	rax, QWORD PTR -88[rbp]
	mov	DWORD PTR 8[rax], 0
	.loc 4 343 24
	mov	rax, QWORD PTR -88[rbp]
	mov	edx, DWORD PTR 8[rax]
	.loc 4 343 22
	mov	rax, QWORD PTR -88[rbp]
	mov	DWORD PTR 12[rax], edx
	.loc 4 346 18
	mov	rax, QWORD PTR -88[rbp]
	mov	rax, QWORD PTR [rax]
	add	rax, 16
	mov	rdx, QWORD PTR [rax]
	mov	rax, QWORD PTR -88[rbp]
	mov	rdi, rax
	call	rdx
.LVL0:
	.loc 4 347 18
	mov	rax, QWORD PTR -88[rbp]
	mov	rax, QWORD PTR [rax]
	add	rax, 24
	mov	rdx, QWORD PTR [rax]
	mov	rax, QWORD PTR -88[rbp]
	mov	rdi, rax
	call	rdx
.LVL1:
	.loc 4 348 8
	jmp	.L16
.L17:
	.loc 4 350 46
	mov	rax, QWORD PTR -88[rbp]
	add	rax, 8
	mov	QWORD PTR -24[rbp], rax
	mov	DWORD PTR -56[rbp], -1
.LBB81:
.LBB82:
.LBB83:
.LBB84:
	.file 5 "/usr/include/c++/13/ext/atomicity.h"
	.loc 5 52 14
	movzx	eax, BYTE PTR __libc_single_threaded[rip]
	test	al, al
	setne	al
.LBE84:
.LBE83:
	.loc 5 98 5 discriminator 1
	test	al, al
	je	.L20
	mov	rax, QWORD PTR -24[rbp]
	mov	QWORD PTR -16[rbp], rax
	mov	eax, DWORD PTR -56[rbp]
	mov	DWORD PTR -52[rbp], eax
.LBB85:
.LBB86:
	.loc 5 84 18
	mov	rax, QWORD PTR -16[rbp]
	mov	eax, DWORD PTR [rax]
	mov	DWORD PTR -48[rbp], eax
	.loc 5 85 5
	mov	rax, QWORD PTR -16[rbp]
	mov	edx, DWORD PTR [rax]
	.loc 5 85 12
	mov	eax, DWORD PTR -52[rbp]
	add	edx, eax
	mov	rax, QWORD PTR -16[rbp]
	mov	DWORD PTR [rax], edx
	.loc 5 86 12
	mov	eax, DWORD PTR -48[rbp]
.LBE86:
.LBE85:
	.loc 5 99 52
	jmp	.L22
.L20:
	mov	rax, QWORD PTR -24[rbp]
	mov	QWORD PTR -8[rbp], rax
	mov	eax, DWORD PTR -56[rbp]
	mov	DWORD PTR -44[rbp], eax
.LBB87:
.LBB88:
	.loc 5 66 30
	mov	edx, DWORD PTR -44[rbp]
	mov	rax, QWORD PTR -8[rbp]
	lock xadd	DWORD PTR [rax], edx
	.loc 5 66 61 discriminator 1
	mov	eax, edx
.LBE88:
.LBE87:
	.loc 5 101 45
	nop
.L22:
.LBE82:
.LBE81:
	.loc 4 350 66 discriminator 1
	cmp	eax, 1
	sete	al
	.loc 4 350 4 discriminator 1
	test	al, al
	je	.L16
	.loc 4 353 32
	mov	rax, QWORD PTR -88[rbp]
	mov	rdi, rax
	call	_ZNSt16_Sp_counted_baseILN9__gnu_cxx12_Lock_policyE2EE24_M_release_last_use_coldEv
	.loc 4 354 8
	nop
.L16:
.LBE80:
.LBE79:
	.loc 4 363 5
	leave
	.cfi_def_cfa 7, 8
	ret
	.cfi_endproc
.LFE2606:
	.size	_ZNSt16_Sp_counted_baseILN9__gnu_cxx12_Lock_policyE2EE10_M_releaseEv, .-_ZNSt16_Sp_counted_baseILN9__gnu_cxx12_Lock_policyE2EE10_M_releaseEv
	.section	.text._ZNSt12__shared_ptrIA_fLN9__gnu_cxx12_Lock_policyE2EED2Ev,"axG",@progbits,_ZNSt12__shared_ptrIA_fLN9__gnu_cxx12_Lock_policyE2EED5Ev,comdat
	.align 2
	.weak	_ZNSt12__shared_ptrIA_fLN9__gnu_cxx12_Lock_policyE2EED2Ev
	.type	_ZNSt12__shared_ptrIA_fLN9__gnu_cxx12_Lock_policyE2EED2Ev, @function
_ZNSt12__shared_ptrIA_fLN9__gnu_cxx12_Lock_policyE2EED2Ev:
.LFB3327:
	.loc 4 1524 7
	.cfi_startproc
	endbr64
	push	rbp
	.cfi_def_cfa_offset 16
	.cfi_offset 6, -16
	mov	rbp, rsp
	.cfi_def_cfa_register 6
	sub	rsp, 16
	mov	QWORD PTR -8[rbp], rdi
.LBB89:
	.loc 4 1524 7
	mov	rax, QWORD PTR -8[rbp]
	add	rax, 8
	mov	rdi, rax
	call	_ZNSt14__shared_countILN9__gnu_cxx12_Lock_policyE2EED1Ev
.LBE89:
	nop
	leave
	.cfi_def_cfa 7, 8
	ret
	.cfi_endproc
.LFE3327:
	.size	_ZNSt12__shared_ptrIA_fLN9__gnu_cxx12_Lock_policyE2EED2Ev, .-_ZNSt12__shared_ptrIA_fLN9__gnu_cxx12_Lock_policyE2EED2Ev
	.weak	_ZNSt12__shared_ptrIA_fLN9__gnu_cxx12_Lock_policyE2EED1Ev
	.set	_ZNSt12__shared_ptrIA_fLN9__gnu_cxx12_Lock_policyE2EED1Ev,_ZNSt12__shared_ptrIA_fLN9__gnu_cxx12_Lock_policyE2EED2Ev
	.section	.text._ZNSt10shared_ptrIA_fED2Ev,"axG",@progbits,_ZNSt10shared_ptrIA_fED5Ev,comdat
	.align 2
	.weak	_ZNSt10shared_ptrIA_fED2Ev
	.type	_ZNSt10shared_ptrIA_fED2Ev, @function
_ZNSt10shared_ptrIA_fED2Ev:
.LFB3329:
	.file 6 "/usr/include/c++/13/bits/shared_ptr.h"
	.loc 6 175 11
	.cfi_startproc
	endbr64
	push	rbp
	.cfi_def_cfa_offset 16
	.cfi_offset 6, -16
	mov	rbp, rsp
	.cfi_def_cfa_register 6
	sub	rsp, 16
	mov	QWORD PTR -8[rbp], rdi
.LBB90:
	.loc 6 175 11
	mov	rax, QWORD PTR -8[rbp]
	mov	rdi, rax
	call	_ZNSt12__shared_ptrIA_fLN9__gnu_cxx12_Lock_policyE2EED2Ev
.LBE90:
	nop
	leave
	.cfi_def_cfa 7, 8
	ret
	.cfi_endproc
.LFE3329:
	.size	_ZNSt10shared_ptrIA_fED2Ev, .-_ZNSt10shared_ptrIA_fED2Ev
	.weak	_ZNSt10shared_ptrIA_fED1Ev
	.set	_ZNSt10shared_ptrIA_fED1Ev,_ZNSt10shared_ptrIA_fED2Ev
	.section	.text._ZN6MatrixC2Ev,"axG",@progbits,_ZN6MatrixC5Ev,comdat
	.align 2
	.weak	_ZN6MatrixC2Ev
	.type	_ZN6MatrixC2Ev, @function
_ZN6MatrixC2Ev:
.LFB3331:
	.file 7 "task_1.cpp"
	.loc 7 11 5
	.cfi_startproc
	endbr64
	push	rbp
	.cfi_def_cfa_offset 16
	.cfi_offset 6, -16
	mov	rbp, rsp
	.cfi_def_cfa_register 6
	sub	rsp, 48
	mov	QWORD PTR -40[rbp], rdi
	.loc 7 11 5
	mov	rax, QWORD PTR fs:40
	mov	QWORD PTR -8[rbp], rax
	xor	eax, eax
.LBB91:
	.loc 7 12 5
	mov	rax, QWORD PTR -40[rbp]
	add	rax, 8
	mov	rdi, rax
	call	_ZNSt10shared_ptrIA_fEC1Ev
	.loc 7 13 16
	lea	rax, -32[rbp]
	mov	esi, 0
	mov	rdi, rax
	call	_ZNSt10shared_ptrIA_fEC1EDn
	.loc 7 13 16 is_stmt 0 discriminator 1
	mov	rax, QWORD PTR -40[rbp]
	lea	rdx, 8[rax]
	lea	rax, -32[rbp]
	mov	rsi, rax
	mov	rdi, rdx
	call	_ZNSt10shared_ptrIA_fEaSEOS1_
	.loc 7 13 16 discriminator 2
	lea	rax, -32[rbp]
	mov	rdi, rax
	call	_ZNSt10shared_ptrIA_fED1Ev
	.loc 7 14 18 is_stmt 1
	mov	rax, QWORD PTR -40[rbp]
	mov	DWORD PTR [rax], 0
	.loc 7 15 21
	mov	rax, QWORD PTR -40[rbp]
	mov	DWORD PTR 4[rax], 0
.LBE91:
	.loc 7 16 5
	nop
	mov	rax, QWORD PTR -8[rbp]
	sub	rax, QWORD PTR fs:40
	je	.L27
	call	__stack_chk_fail@PLT
.L27:
	leave
	.cfi_def_cfa 7, 8
	ret
	.cfi_endproc
.LFE3331:
	.size	_ZN6MatrixC2Ev, .-_ZN6MatrixC2Ev
	.weak	_ZN6MatrixC1Ev
	.set	_ZN6MatrixC1Ev,_ZN6MatrixC2Ev
	.section	.text._ZN6MatrixD2Ev,"axG",@progbits,_ZN6MatrixD5Ev,comdat
	.align 2
	.weak	_ZN6MatrixD2Ev
	.type	_ZN6MatrixD2Ev, @function
_ZN6MatrixD2Ev:
.LFB3334:
	.loc 7 17 5
	.cfi_startproc
	endbr64
	push	rbp
	.cfi_def_cfa_offset 16
	.cfi_offset 6, -16
	mov	rbp, rsp
	.cfi_def_cfa_register 6
	sub	rsp, 16
	mov	QWORD PTR -8[rbp], rdi
.LBB92:
	.loc 7 19 14
	mov	rax, QWORD PTR -8[rbp]
	mov	rdi, rax
	call	_ZN6Matrix5clearEv
	.loc 7 20 5
	mov	rax, QWORD PTR -8[rbp]
	add	rax, 8
	mov	rdi, rax
	call	_ZNSt10shared_ptrIA_fED1Ev
.LBE92:
	nop
	leave
	.cfi_def_cfa 7, 8
	ret
	.cfi_endproc
.LFE3334:
	.size	_ZN6MatrixD2Ev, .-_ZN6MatrixD2Ev
	.weak	_ZN6MatrixD1Ev
	.set	_ZN6MatrixD1Ev,_ZN6MatrixD2Ev
	.section	.text._ZN6MatrixC2Eii,"axG",@progbits,_ZN6MatrixC5Eii,comdat
	.align 2
	.weak	_ZN6MatrixC2Eii
	.type	_ZN6MatrixC2Eii, @function
_ZN6MatrixC2Eii:
.LFB3338:
	.loc 7 21 5
	.cfi_startproc
	.cfi_personality 0x9b,DW.ref.__gxx_personality_v0
	.cfi_lsda 0x1b,.LLSDA3338
	endbr64
	push	rbp
	.cfi_def_cfa_offset 16
	.cfi_offset 6, -16
	mov	rbp, rsp
	.cfi_def_cfa_register 6
	push	rbx
	sub	rsp, 56
	.cfi_offset 3, -24
	mov	QWORD PTR -56[rbp], rdi
	mov	DWORD PTR -60[rbp], esi
	mov	DWORD PTR -64[rbp], edx
	.loc 7 21 5
	mov	rax, QWORD PTR fs:40
	mov	QWORD PTR -24[rbp], rax
	xor	eax, eax
.LBB93:
	.loc 7 22 5
	mov	rax, QWORD PTR -56[rbp]
	add	rax, 8
	mov	rdi, rax
	call	_ZNSt10shared_ptrIA_fEC1Ev
	.loc 7 24 53
	mov	eax, DWORD PTR -60[rbp]
	imul	eax, DWORD PTR -64[rbp]
	cdqe
	.loc 7 24 56
	movabs	rdx, 2305843009213693950
	cmp	rdx, rax
	jb	.L30
	.loc 7 24 56 is_stmt 0 discriminator 1
	sal	rax, 2
	.loc 7 24 56 discriminator 3
	mov	rdi, rax
.LEHB0:
	call	_Znam@PLT
	jmp	.L37
.L30:
	.loc 7 24 56 discriminator 2
	mov	rax, QWORD PTR -24[rbp]
	sub	rax, QWORD PTR fs:40
	je	.L32
	call	__stack_chk_fail@PLT
.L32:
	call	__cxa_throw_bad_array_new_length@PLT
.L37:
	.loc 7 24 56 discriminator 3
	mov	rdx, rax
	.loc 7 24 21 is_stmt 1 discriminator 6
	lea	rax, -48[rbp]
	mov	rsi, rdx
	mov	rdi, rax
	call	_ZNSt10shared_ptrIA_fEC1IfvEEPT_
.LEHE0:
	.loc 7 24 57 discriminator 8
	mov	rax, QWORD PTR -56[rbp]
	lea	rdx, 8[rax]
	lea	rax, -48[rbp]
	mov	rsi, rax
	mov	rdi, rdx
	call	_ZNSt10shared_ptrIA_fEaSEOS1_
	.loc 7 24 21 discriminator 1
	lea	rax, -48[rbp]
	mov	rdi, rax
	call	_ZNSt10shared_ptrIA_fED1Ev
	.loc 7 25 18
	mov	rax, QWORD PTR -56[rbp]
	mov	edx, DWORD PTR -60[rbp]
	mov	DWORD PTR [rax], edx
	.loc 7 26 21
	mov	rax, QWORD PTR -56[rbp]
	mov	edx, DWORD PTR -64[rbp]
	mov	DWORD PTR 4[rax], edx
.LBE93:
	.loc 7 27 5
	nop
	mov	rax, QWORD PTR -24[rbp]
	sub	rax, QWORD PTR fs:40
	je	.L35
	jmp	.L38
.L36:
	endbr64
.LBB94:
	mov	rbx, rax
	mov	rax, QWORD PTR -56[rbp]
	add	rax, 8
	mov	rdi, rax
	call	_ZNSt10shared_ptrIA_fED1Ev
	mov	rax, rbx
	mov	rdx, QWORD PTR -24[rbp]
	sub	rdx, QWORD PTR fs:40
	je	.L34
	call	__stack_chk_fail@PLT
.L34:
	mov	rdi, rax
.LEHB1:
	call	_Unwind_Resume@PLT
.LEHE1:
.L38:
.LBE94:
	call	__stack_chk_fail@PLT
.L35:
	mov	rbx, QWORD PTR -8[rbp]
	leave
	.cfi_def_cfa 7, 8
	ret
	.cfi_endproc
.LFE3338:
	.globl	__gxx_personality_v0
	.section	.gcc_except_table._ZN6MatrixC2Eii,"aG",@progbits,_ZN6MatrixC5Eii,comdat
.LLSDA3338:
	.byte	0xff
	.byte	0xff
	.byte	0x1
	.uleb128 .LLSDACSE3338-.LLSDACSB3338
.LLSDACSB3338:
	.uleb128 .LEHB0-.LFB3338
	.uleb128 .LEHE0-.LEHB0
	.uleb128 .L36-.LFB3338
	.uleb128 0
	.uleb128 .LEHB1-.LFB3338
	.uleb128 .LEHE1-.LEHB1
	.uleb128 0
	.uleb128 0
.LLSDACSE3338:
	.section	.text._ZN6MatrixC2Eii,"axG",@progbits,_ZN6MatrixC5Eii,comdat
	.size	_ZN6MatrixC2Eii, .-_ZN6MatrixC2Eii
	.weak	_ZN6MatrixC1Eii
	.set	_ZN6MatrixC1Eii,_ZN6MatrixC2Eii
	.section	.text._ZN6MatrixC2ERKS_,"axG",@progbits,_ZN6MatrixC5ERKS_,comdat
	.align 2
	.weak	_ZN6MatrixC2ERKS_
	.type	_ZN6MatrixC2ERKS_, @function
_ZN6MatrixC2ERKS_:
.LFB3341:
	.loc 7 29 5
	.cfi_startproc
	.cfi_personality 0x9b,DW.ref.__gxx_personality_v0
	.cfi_lsda 0x1b,.LLSDA3341
	endbr64
	push	rbp
	.cfi_def_cfa_offset 16
	.cfi_offset 6, -16
	mov	rbp, rsp
	.cfi_def_cfa_register 6
	push	rbx
	sub	rsp, 72
	.cfi_offset 3, -24
	mov	QWORD PTR -72[rbp], rdi
	mov	QWORD PTR -80[rbp], rsi
	.loc 7 29 5
	mov	rax, QWORD PTR fs:40
	mov	QWORD PTR -24[rbp], rax
	xor	eax, eax
.LBB95:
	.loc 7 30 5
	mov	rax, QWORD PTR -72[rbp]
	add	rax, 8
	mov	rdi, rax
	call	_ZNSt10shared_ptrIA_fEC1Ev
.LBB96:
	.loc 7 31 24
	mov	rax, QWORD PTR -80[rbp]
	mov	edx, DWORD PTR [rax]
	.loc 7 31 18
	mov	rax, QWORD PTR -72[rbp]
	mov	DWORD PTR [rax], edx
	.loc 7 32 27
	mov	rax, QWORD PTR -80[rbp]
	mov	edx, DWORD PTR 4[rax]
	.loc 7 32 21
	mov	rax, QWORD PTR -72[rbp]
	mov	DWORD PTR 4[rax], edx
	.loc 7 33 17
	mov	rax, QWORD PTR -80[rbp]
	mov	eax, DWORD PTR [rax]
	.loc 7 33 9
	test	eax, eax
	je	.L40
	.loc 7 33 38 discriminator 1
	mov	rax, QWORD PTR -80[rbp]
	mov	eax, DWORD PTR 4[rax]
	.loc 7 33 31 discriminator 1
	test	eax, eax
	jne	.L41
.L40:
	.loc 7 35 23
	mov	rax, QWORD PTR -72[rbp]
	add	rax, 8
	mov	rdi, rax
	call	_ZNSt12__shared_ptrIA_fLN9__gnu_cxx12_Lock_policyE2EE5resetEv
.L41:
	.loc 7 37 51
	mov	rax, QWORD PTR -72[rbp]
	mov	edx, DWORD PTR [rax]
	.loc 7 37 62
	mov	rax, QWORD PTR -72[rbp]
	mov	eax, DWORD PTR 4[rax]
	.loc 7 37 60
	imul	eax, edx
	cdqe
	.loc 7 37 73
	movabs	rdx, 2305843009213693950
	cmp	rdx, rax
	jb	.L42
	.loc 7 37 73 is_stmt 0 discriminator 1
	sal	rax, 2
	.loc 7 37 73 discriminator 3
	mov	rdi, rax
.LEHB2:
	call	_Znam@PLT
	jmp	.L53
.L42:
	.loc 7 37 73 discriminator 2
	mov	rax, QWORD PTR -24[rbp]
	sub	rax, QWORD PTR fs:40
	je	.L44
	call	__stack_chk_fail@PLT
.L44:
	call	__cxa_throw_bad_array_new_length@PLT
.L53:
	.loc 7 37 73 discriminator 3
	mov	rdx, rax
	.loc 7 37 21 is_stmt 1 discriminator 6
	lea	rax, -48[rbp]
	mov	rsi, rdx
	mov	rdi, rax
	call	_ZNSt10shared_ptrIA_fEC1IfvEEPT_
.LEHE2:
	.loc 7 37 74 discriminator 8
	mov	rax, QWORD PTR -72[rbp]
	lea	rdx, 8[rax]
	lea	rax, -48[rbp]
	mov	rsi, rax
	mov	rdi, rdx
	call	_ZNSt10shared_ptrIA_fEaSEOS1_
	.loc 7 37 21 discriminator 1
	lea	rax, -48[rbp]
	mov	rdi, rax
	call	_ZNSt10shared_ptrIA_fED1Ev
.LBB97:
	.loc 7 38 18
	mov	DWORD PTR -56[rbp], 0
	.loc 7 38 9
	jmp	.L45
.L48:
.LBB98:
.LBB99:
	.loc 7 40 22
	mov	DWORD PTR -52[rbp], 0
	.loc 7 40 13
	jmp	.L46
.L47:
	.loc 7 42 36
	mov	edx, DWORD PTR -52[rbp]
	mov	ecx, DWORD PTR -56[rbp]
	mov	rax, QWORD PTR -80[rbp]
	mov	esi, ecx
	mov	rdi, rax
	call	_ZNK6MatrixclEii
	movd	ebx, xmm0
	.loc 7 42 24 discriminator 1
	mov	edx, DWORD PTR -52[rbp]
	mov	ecx, DWORD PTR -56[rbp]
	mov	rax, QWORD PTR -72[rbp]
	mov	esi, ecx
	mov	rdi, rax
	call	_ZN6MatrixclEii
	.loc 7 42 31 discriminator 2
	mov	DWORD PTR [rax], ebx
	.loc 7 40 13 discriminator 3
	add	DWORD PTR -52[rbp], 1
.L46:
	.loc 7 40 37 discriminator 1
	mov	rax, QWORD PTR -80[rbp]
	mov	eax, DWORD PTR 4[rax]
	.loc 7 40 31 discriminator 1
	cmp	DWORD PTR -52[rbp], eax
	jl	.L47
.LBE99:
.LBE98:
	.loc 7 38 9 discriminator 2
	add	DWORD PTR -56[rbp], 1
.L45:
	.loc 7 38 33 discriminator 1
	mov	rax, QWORD PTR -80[rbp]
	mov	eax, DWORD PTR [rax]
	.loc 7 38 27 discriminator 1
	cmp	DWORD PTR -56[rbp], eax
	jl	.L48
.LBE97:
.LBE96:
.LBE95:
	.loc 7 45 5
	jmp	.L54
.L52:
	endbr64
.LBB100:
	mov	rbx, rax
	mov	rax, QWORD PTR -72[rbp]
	add	rax, 8
	mov	rdi, rax
	call	_ZNSt10shared_ptrIA_fED1Ev
	mov	rax, rbx
	mov	rdx, QWORD PTR -24[rbp]
	sub	rdx, QWORD PTR fs:40
	je	.L50
	call	__stack_chk_fail@PLT
.L50:
	mov	rdi, rax
.LEHB3:
	call	_Unwind_Resume@PLT
.LEHE3:
.L54:
.LBE100:
	mov	rax, QWORD PTR -24[rbp]
	sub	rax, QWORD PTR fs:40
	je	.L51
	call	__stack_chk_fail@PLT
.L51:
	mov	rbx, QWORD PTR -8[rbp]
	leave
	.cfi_def_cfa 7, 8
	ret
	.cfi_endproc
.LFE3341:
	.section	.gcc_except_table._ZN6MatrixC2ERKS_,"aG",@progbits,_ZN6MatrixC5ERKS_,comdat
.LLSDA3341:
	.byte	0xff
	.byte	0xff
	.byte	0x1
	.uleb128 .LLSDACSE3341-.LLSDACSB3341
.LLSDACSB3341:
	.uleb128 .LEHB2-.LFB3341
	.uleb128 .LEHE2-.LEHB2
	.uleb128 .L52-.LFB3341
	.uleb128 0
	.uleb128 .LEHB3-.LFB3341
	.uleb128 .LEHE3-.LEHB3
	.uleb128 0
	.uleb128 0
.LLSDACSE3341:
	.section	.text._ZN6MatrixC2ERKS_,"axG",@progbits,_ZN6MatrixC5ERKS_,comdat
	.size	_ZN6MatrixC2ERKS_, .-_ZN6MatrixC2ERKS_
	.weak	_ZN6MatrixC1ERKS_
	.set	_ZN6MatrixC1ERKS_,_ZN6MatrixC2ERKS_
	.section	.text._ZN6MatrixaSERKS_,"axG",@progbits,_ZN6MatrixaSERKS_,comdat
	.align 2
	.weak	_ZN6MatrixaSERKS_
	.type	_ZN6MatrixaSERKS_, @function
_ZN6MatrixaSERKS_:
.LFB3343:
	.loc 7 46 13
	.cfi_startproc
	endbr64
	push	rbp
	.cfi_def_cfa_offset 16
	.cfi_offset 6, -16
	mov	rbp, rsp
	.cfi_def_cfa_register 6
	push	rbx
	sub	rsp, 72
	.cfi_offset 3, -24
	mov	QWORD PTR -72[rbp], rdi
	mov	QWORD PTR -80[rbp], rsi
	.loc 7 46 13
	mov	rax, QWORD PTR fs:40
	mov	QWORD PTR -24[rbp], rax
	xor	eax, eax
	.loc 7 48 24
	mov	rax, QWORD PTR -80[rbp]
	mov	edx, DWORD PTR [rax]
	.loc 7 48 18
	mov	rax, QWORD PTR -72[rbp]
	mov	DWORD PTR [rax], edx
	.loc 7 49 27
	mov	rax, QWORD PTR -80[rbp]
	mov	edx, DWORD PTR 4[rax]
	.loc 7 49 21
	mov	rax, QWORD PTR -72[rbp]
	mov	DWORD PTR 4[rax], edx
	.loc 7 50 17
	mov	rax, QWORD PTR -80[rbp]
	mov	eax, DWORD PTR [rax]
	.loc 7 50 9
	test	eax, eax
	je	.L56
	.loc 7 50 38 discriminator 1
	mov	rax, QWORD PTR -80[rbp]
	mov	eax, DWORD PTR 4[rax]
	.loc 7 50 31 discriminator 1
	test	eax, eax
	jne	.L57
.L56:
	.loc 7 52 20
	lea	rax, -48[rbp]
	mov	esi, 0
	mov	rdi, rax
	call	_ZNSt10shared_ptrIA_fEC1EDn
	.loc 7 52 20 is_stmt 0 discriminator 1
	mov	rax, QWORD PTR -72[rbp]
	lea	rdx, 8[rax]
	lea	rax, -48[rbp]
	mov	rsi, rax
	mov	rdi, rdx
	call	_ZNSt10shared_ptrIA_fEaSEOS1_
	.loc 7 52 20 discriminator 2
	lea	rax, -48[rbp]
	mov	rdi, rax
	call	_ZNSt10shared_ptrIA_fED1Ev
.L57:
.LBB101:
	.loc 7 54 18 is_stmt 1
	mov	DWORD PTR -56[rbp], 0
	.loc 7 54 9
	jmp	.L58
.L61:
.LBB102:
.LBB103:
	.loc 7 56 22
	mov	DWORD PTR -52[rbp], 0
	.loc 7 56 13
	jmp	.L59
.L60:
	.loc 7 58 36
	mov	edx, DWORD PTR -52[rbp]
	mov	ecx, DWORD PTR -56[rbp]
	mov	rax, QWORD PTR -80[rbp]
	mov	esi, ecx
	mov	rdi, rax
	call	_ZNK6MatrixclEii
	movd	ebx, xmm0
	.loc 7 58 24 discriminator 1
	mov	edx, DWORD PTR -52[rbp]
	mov	ecx, DWORD PTR -56[rbp]
	mov	rax, QWORD PTR -72[rbp]
	mov	esi, ecx
	mov	rdi, rax
	call	_ZN6MatrixclEii
	.loc 7 58 31 discriminator 2
	mov	DWORD PTR [rax], ebx
	.loc 7 56 13 discriminator 3
	add	DWORD PTR -52[rbp], 1
.L59:
	.loc 7 56 37 discriminator 1
	mov	rax, QWORD PTR -80[rbp]
	mov	eax, DWORD PTR 4[rax]
	.loc 7 56 31 discriminator 1
	cmp	DWORD PTR -52[rbp], eax
	jl	.L60
.LBE103:
.LBE102:
	.loc 7 54 9 discriminator 2
	add	DWORD PTR -56[rbp], 1
.L58:
	.loc 7 54 33 discriminator 1
	mov	rax, QWORD PTR -80[rbp]
	mov	eax, DWORD PTR [rax]
	.loc 7 54 27 discriminator 1
	cmp	DWORD PTR -56[rbp], eax
	jl	.L61
.LBE101:
	.loc 7 61 17
	mov	rax, QWORD PTR -72[rbp]
	.loc 7 62 5
	mov	rdx, QWORD PTR -24[rbp]
	sub	rdx, QWORD PTR fs:40
	je	.L63
	call	__stack_chk_fail@PLT
.L63:
	mov	rbx, QWORD PTR -8[rbp]
	leave
	.cfi_def_cfa 7, 8
	ret
	.cfi_endproc
.LFE3343:
	.size	_ZN6MatrixaSERKS_, .-_ZN6MatrixaSERKS_
	.section	.text._ZNSt12__shared_ptrIA_fLN9__gnu_cxx12_Lock_policyE2EEaSERKS3_,"axG",@progbits,_ZNSt12__shared_ptrIA_fLN9__gnu_cxx12_Lock_policyE2EEaSERKS3_,comdat
	.align 2
	.weak	_ZNSt12__shared_ptrIA_fLN9__gnu_cxx12_Lock_policyE2EEaSERKS3_
	.type	_ZNSt12__shared_ptrIA_fLN9__gnu_cxx12_Lock_policyE2EEaSERKS3_, @function
_ZNSt12__shared_ptrIA_fLN9__gnu_cxx12_Lock_policyE2EEaSERKS3_:
.LFB3347:
	.loc 4 1523 21
	.cfi_startproc
	endbr64
	push	rbp
	.cfi_def_cfa_offset 16
	.cfi_offset 6, -16
	mov	rbp, rsp
	.cfi_def_cfa_register 6
	sub	rsp, 16
	mov	QWORD PTR -8[rbp], rdi
	mov	QWORD PTR -16[rbp], rsi
	.loc 4 1523 21
	mov	rax, QWORD PTR -16[rbp]
	mov	rdx, QWORD PTR [rax]
	mov	rax, QWORD PTR -8[rbp]
	mov	QWORD PTR [rax], rdx
	mov	rax, QWORD PTR -16[rbp]
	lea	rdx, 8[rax]
	mov	rax, QWORD PTR -8[rbp]
	add	rax, 8
	mov	rsi, rdx
	mov	rdi, rax
	call	_ZNSt14__shared_countILN9__gnu_cxx12_Lock_policyE2EEaSERKS2_
	.loc 4 1523 21 is_stmt 0 discriminator 1
	mov	rax, QWORD PTR -8[rbp]
	.loc 4 1523 21
	leave
	.cfi_def_cfa 7, 8
	ret
	.cfi_endproc
.LFE3347:
	.size	_ZNSt12__shared_ptrIA_fLN9__gnu_cxx12_Lock_policyE2EEaSERKS3_, .-_ZNSt12__shared_ptrIA_fLN9__gnu_cxx12_Lock_policyE2EEaSERKS3_
	.section	.text._ZNSt10shared_ptrIA_fEaSERKS1_,"axG",@progbits,_ZNSt10shared_ptrIA_fEaSERKS1_,comdat
	.align 2
	.weak	_ZNSt10shared_ptrIA_fEaSERKS1_
	.type	_ZNSt10shared_ptrIA_fEaSERKS1_, @function
_ZNSt10shared_ptrIA_fEaSERKS1_:
.LFB3346:
	.loc 6 414 19 is_stmt 1
	.cfi_startproc
	endbr64
	push	rbp
	.cfi_def_cfa_offset 16
	.cfi_offset 6, -16
	mov	rbp, rsp
	.cfi_def_cfa_register 6
	sub	rsp, 16
	mov	QWORD PTR -8[rbp], rdi
	mov	QWORD PTR -16[rbp], rsi
	.loc 6 414 19
	mov	rax, QWORD PTR -8[rbp]
	mov	rdx, QWORD PTR -16[rbp]
	mov	rsi, rdx
	mov	rdi, rax
	call	_ZNSt12__shared_ptrIA_fLN9__gnu_cxx12_Lock_policyE2EEaSERKS3_
	.loc 6 414 19 is_stmt 0 discriminator 1
	mov	rax, QWORD PTR -8[rbp]
	.loc 6 414 19
	leave
	.cfi_def_cfa 7, 8
	ret
	.cfi_endproc
.LFE3346:
	.size	_ZNSt10shared_ptrIA_fEaSERKS1_, .-_ZNSt10shared_ptrIA_fEaSERKS1_
	.section	.text._ZN6MatrixC2EOS_,"axG",@progbits,_ZN6MatrixC5EOS_,comdat
	.align 2
	.weak	_ZN6MatrixC2EOS_
	.type	_ZN6MatrixC2EOS_, @function
_ZN6MatrixC2EOS_:
.LFB3348:
	.loc 7 64 5 is_stmt 1
	.cfi_startproc
	endbr64
	push	rbp
	.cfi_def_cfa_offset 16
	.cfi_offset 6, -16
	mov	rbp, rsp
	.cfi_def_cfa_register 6
	sub	rsp, 16
	mov	QWORD PTR -8[rbp], rdi
	mov	QWORD PTR -16[rbp], rsi
.LBB104:
	.loc 7 65 5
	mov	rax, QWORD PTR -8[rbp]
	add	rax, 8
	mov	rdi, rax
	call	_ZNSt10shared_ptrIA_fEC1Ev
	.loc 7 66 24
	mov	rax, QWORD PTR -16[rbp]
	mov	edx, DWORD PTR [rax]
	.loc 7 66 18
	mov	rax, QWORD PTR -8[rbp]
	mov	DWORD PTR [rax], edx
	.loc 7 67 27
	mov	rax, QWORD PTR -16[rbp]
	mov	edx, DWORD PTR 4[rax]
	.loc 7 67 21
	mov	rax, QWORD PTR -8[rbp]
	mov	DWORD PTR 4[rax], edx
	.loc 7 68 20
	mov	rax, QWORD PTR -16[rbp]
	lea	rdx, 8[rax]
	mov	rax, QWORD PTR -8[rbp]
	add	rax, 8
	mov	rsi, rdx
	mov	rdi, rax
	call	_ZNSt10shared_ptrIA_fEaSERKS1_
	.loc 7 69 18
	mov	rax, QWORD PTR -16[rbp]
	mov	rdi, rax
	call	_ZN6Matrix5clearEv
.LBE104:
	.loc 7 70 5
	nop
	leave
	.cfi_def_cfa 7, 8
	ret
	.cfi_endproc
.LFE3348:
	.size	_ZN6MatrixC2EOS_, .-_ZN6MatrixC2EOS_
	.weak	_ZN6MatrixC1EOS_
	.set	_ZN6MatrixC1EOS_,_ZN6MatrixC2EOS_
	.section	.text._ZN6Matrix9transposeEv,"axG",@progbits,_ZN6Matrix9transposeEv,comdat
	.align 2
	.weak	_ZN6Matrix9transposeEv
	.type	_ZN6Matrix9transposeEv, @function
_ZN6Matrix9transposeEv:
.LFB3351:
	.loc 7 80 10
	.cfi_startproc
	endbr64
	push	rbp
	.cfi_def_cfa_offset 16
	.cfi_offset 6, -16
	mov	rbp, rsp
	.cfi_def_cfa_register 6
	sub	rsp, 64
	mov	QWORD PTR -56[rbp], rdi
	.loc 7 80 10
	mov	rax, QWORD PTR fs:40
	mov	QWORD PTR -8[rbp], rax
	xor	eax, eax
	.loc 7 82 41
	mov	rax, QWORD PTR -56[rbp]
	mov	edx, DWORD PTR [rax]
	mov	rax, QWORD PTR -56[rbp]
	mov	ecx, DWORD PTR 4[rax]
	lea	rax, -32[rbp]
	mov	esi, ecx
	mov	rdi, rax
	call	_ZN6MatrixC1Eii
.LBB105:
	.loc 7 83 18
	mov	DWORD PTR -40[rbp], 0
	.loc 7 83 9
	jmp	.L70
.L73:
.LBB106:
.LBB107:
	.loc 7 85 22
	mov	DWORD PTR -36[rbp], 0
	.loc 7 85 13
	jmp	.L71
.L72:
	.loc 7 87 36
	mov	edx, DWORD PTR -36[rbp]
	mov	ecx, DWORD PTR -40[rbp]
	mov	rax, QWORD PTR -56[rbp]
	mov	esi, ecx
	mov	rdi, rax
	call	_ZN6MatrixclEii
	.loc 7 87 36 is_stmt 0 discriminator 1
	movss	xmm0, DWORD PTR [rax]
	movss	DWORD PTR -60[rbp], xmm0
	.loc 7 87 20 is_stmt 1 discriminator 1
	mov	edx, DWORD PTR -40[rbp]
	mov	ecx, DWORD PTR -36[rbp]
	lea	rax, -32[rbp]
	mov	esi, ecx
	mov	rdi, rax
	call	_ZN6MatrixclEii
	.loc 7 87 27 discriminator 2
	movss	xmm0, DWORD PTR -60[rbp]
	movss	DWORD PTR [rax], xmm0
	.loc 7 85 13 discriminator 3
	add	DWORD PTR -36[rbp], 1
.L71:
	.loc 7 85 33 discriminator 1
	mov	rax, QWORD PTR -56[rbp]
	mov	eax, DWORD PTR 4[rax]
	.loc 7 85 31 discriminator 1
	cmp	DWORD PTR -36[rbp], eax
	jl	.L72
.LBE107:
.LBE106:
	.loc 7 83 9 discriminator 2
	add	DWORD PTR -40[rbp], 1
.L70:
	.loc 7 83 29 discriminator 1
	mov	rax, QWORD PTR -56[rbp]
	mov	eax, DWORD PTR [rax]
	.loc 7 83 27 discriminator 1
	cmp	DWORD PTR -40[rbp], eax
	jl	.L73
.LBE105:
	.loc 7 90 19
	lea	rdx, -32[rbp]
	mov	rax, QWORD PTR -56[rbp]
	mov	rsi, rdx
	mov	rdi, rax
	call	_ZN6MatrixaSERKS_
	.loc 7 91 5
	lea	rax, -32[rbp]
	mov	rdi, rax
	call	_ZN6MatrixD1Ev
	mov	rax, QWORD PTR -8[rbp]
	sub	rax, QWORD PTR fs:40
	je	.L74
	call	__stack_chk_fail@PLT
.L74:
	leave
	.cfi_def_cfa 7, 8
	ret
	.cfi_endproc
.LFE3351:
	.size	_ZN6Matrix9transposeEv, .-_ZN6Matrix9transposeEv
	.section	.text._ZN6Matrix5clearEv,"axG",@progbits,_ZN6Matrix5clearEv,comdat
	.align 2
	.weak	_ZN6Matrix5clearEv
	.type	_ZN6Matrix5clearEv, @function
_ZN6Matrix5clearEv:
.LFB3352:
	.loc 7 93 10
	.cfi_startproc
	endbr64
	push	rbp
	.cfi_def_cfa_offset 16
	.cfi_offset 6, -16
	mov	rbp, rsp
	.cfi_def_cfa_register 6
	sub	rsp, 16
	mov	QWORD PTR -8[rbp], rdi
	.loc 7 95 19
	mov	rax, QWORD PTR -8[rbp]
	add	rax, 8
	mov	rdi, rax
	call	_ZNSt12__shared_ptrIA_fLN9__gnu_cxx12_Lock_policyE2EE5resetEv
	.loc 7 96 18
	mov	rax, QWORD PTR -8[rbp]
	mov	DWORD PTR [rax], 0
	.loc 7 97 21
	mov	rax, QWORD PTR -8[rbp]
	mov	DWORD PTR 4[rax], 0
	.loc 7 98 5
	nop
	leave
	.cfi_def_cfa 7, 8
	ret
	.cfi_endproc
.LFE3352:
	.size	_ZN6Matrix5clearEv, .-_ZN6Matrix5clearEv
	.section	.text._ZNK6Matrix10getRowsNumEv,"axG",@progbits,_ZNK6Matrix10getRowsNumEv,comdat
	.align 2
	.weak	_ZNK6Matrix10getRowsNumEv
	.type	_ZNK6Matrix10getRowsNumEv, @function
_ZNK6Matrix10getRowsNumEv:
.LFB3353:
	.loc 7 99 9
	.cfi_startproc
	endbr64
	push	rbp
	.cfi_def_cfa_offset 16
	.cfi_offset 6, -16
	mov	rbp, rsp
	.cfi_def_cfa_register 6
	mov	QWORD PTR -8[rbp], rdi
	.loc 7 99 46
	mov	rax, QWORD PTR -8[rbp]
	mov	eax, DWORD PTR [rax]
	.loc 7 99 56
	pop	rbp
	.cfi_def_cfa 7, 8
	ret
	.cfi_endproc
.LFE3353:
	.size	_ZNK6Matrix10getRowsNumEv, .-_ZNK6Matrix10getRowsNumEv
	.section	.text._ZNK6Matrix13getColumnsNumEv,"axG",@progbits,_ZNK6Matrix13getColumnsNumEv,comdat
	.align 2
	.weak	_ZNK6Matrix13getColumnsNumEv
	.type	_ZNK6Matrix13getColumnsNumEv, @function
_ZNK6Matrix13getColumnsNumEv:
.LFB3354:
	.loc 7 100 9
	.cfi_startproc
	endbr64
	push	rbp
	.cfi_def_cfa_offset 16
	.cfi_offset 6, -16
	mov	rbp, rsp
	.cfi_def_cfa_register 6
	mov	QWORD PTR -8[rbp], rdi
	.loc 7 100 49
	mov	rax, QWORD PTR -8[rbp]
	mov	eax, DWORD PTR 4[rax]
	.loc 7 100 62
	pop	rbp
	.cfi_def_cfa 7, 8
	ret
	.cfi_endproc
.LFE3354:
	.size	_ZNK6Matrix13getColumnsNumEv, .-_ZNK6Matrix13getColumnsNumEv
	.section	.text._ZN6MatrixclEii,"axG",@progbits,_ZN6MatrixclEii,comdat
	.align 2
	.weak	_ZN6MatrixclEii
	.type	_ZN6MatrixclEii, @function
_ZN6MatrixclEii:
.LFB3355:
	.loc 7 101 12
	.cfi_startproc
	endbr64
	push	rbp
	.cfi_def_cfa_offset 16
	.cfi_offset 6, -16
	mov	rbp, rsp
	.cfi_def_cfa_register 6
	sub	rsp, 16
	mov	QWORD PTR -8[rbp], rdi
	mov	DWORD PTR -12[rbp], esi
	mov	DWORD PTR -16[rbp], edx
	.loc 7 103 24
	mov	rax, QWORD PTR -8[rbp]
	add	rax, 8
	mov	rdi, rax
	call	_ZNKSt12__shared_ptrIA_fLN9__gnu_cxx12_Lock_policyE2EE3getEv
	.loc 7 103 31 discriminator 1
	mov	rdx, QWORD PTR -8[rbp]
	mov	edx, DWORD PTR 4[rdx]
	.loc 7 103 29 discriminator 1
	mov	ecx, edx
	imul	ecx, DWORD PTR -12[rbp]
	.loc 7 103 43 discriminator 1
	mov	edx, DWORD PTR -16[rbp]
	add	edx, ecx
	movsx	rdx, edx
	.loc 7 103 46 discriminator 1
	sal	rdx, 2
	add	rax, rdx
	.loc 7 104 5
	leave
	.cfi_def_cfa 7, 8
	ret
	.cfi_endproc
.LFE3355:
	.size	_ZN6MatrixclEii, .-_ZN6MatrixclEii
	.section	.text._ZNK6MatrixclEii,"axG",@progbits,_ZNK6MatrixclEii,comdat
	.align 2
	.weak	_ZNK6MatrixclEii
	.type	_ZNK6MatrixclEii, @function
_ZNK6MatrixclEii:
.LFB3356:
	.loc 7 106 11
	.cfi_startproc
	endbr64
	push	rbp
	.cfi_def_cfa_offset 16
	.cfi_offset 6, -16
	mov	rbp, rsp
	.cfi_def_cfa_register 6
	sub	rsp, 16
	mov	QWORD PTR -8[rbp], rdi
	mov	DWORD PTR -12[rbp], esi
	mov	DWORD PTR -16[rbp], edx
	.loc 7 108 24
	mov	rax, QWORD PTR -8[rbp]
	add	rax, 8
	mov	rdi, rax
	call	_ZNKSt12__shared_ptrIA_fLN9__gnu_cxx12_Lock_policyE2EE3getEv
	.loc 7 108 31 discriminator 1
	mov	rdx, QWORD PTR -8[rbp]
	mov	edx, DWORD PTR 4[rdx]
	.loc 7 108 29 discriminator 1
	mov	ecx, edx
	imul	ecx, DWORD PTR -12[rbp]
	.loc 7 108 43 discriminator 1
	mov	edx, DWORD PTR -16[rbp]
	add	edx, ecx
	movsx	rdx, edx
	.loc 7 108 46 discriminator 1
	sal	rdx, 2
	add	rax, rdx
	movss	xmm0, DWORD PTR [rax]
	.loc 7 109 5
	leave
	.cfi_def_cfa 7, 8
	ret
	.cfi_endproc
.LFE3356:
	.size	_ZNK6MatrixclEii, .-_ZNK6MatrixclEii
	.section	.rodata
.LC0:
	.string	" "
.LC1:
	.string	"\n"
	.section	.text._ZlsRSoRK6Matrix,"axG",@progbits,_ZlsRSoRK6Matrix,comdat
	.weak	_ZlsRSoRK6Matrix
	.type	_ZlsRSoRK6Matrix, @function
_ZlsRSoRK6Matrix:
.LFB3357:
	.loc 7 110 26
	.cfi_startproc
	endbr64
	push	rbp
	.cfi_def_cfa_offset 16
	.cfi_offset 6, -16
	mov	rbp, rsp
	.cfi_def_cfa_register 6
	sub	rsp, 32
	mov	QWORD PTR -24[rbp], rdi
	mov	QWORD PTR -32[rbp], rsi
.LBB108:
	.loc 7 112 18
	mov	DWORD PTR -8[rbp], 0
	.loc 7 112 9
	jmp	.L85
.L88:
.LBB109:
.LBB110:
	.loc 7 114 22
	mov	DWORD PTR -4[rbp], 0
	.loc 7 114 13
	jmp	.L86
.L87:
	.loc 7 116 31
	mov	edx, DWORD PTR -4[rbp]
	mov	ecx, DWORD PTR -8[rbp]
	mov	rax, QWORD PTR -32[rbp]
	mov	esi, ecx
	mov	rdi, rax
	call	_ZNK6MatrixclEii
	movd	eax, xmm0
	.loc 7 116 31 is_stmt 0 discriminator 1
	mov	rdx, QWORD PTR -24[rbp]
	movd	xmm0, eax
	mov	rdi, rdx
	call	_ZNSolsEf@PLT
	mov	rdx, rax
	.loc 7 116 36 is_stmt 1 discriminator 2
	lea	rax, .LC0[rip]
	mov	rsi, rax
	mov	rdi, rdx
	call	_ZStlsISt11char_traitsIcEERSt13basic_ostreamIcT_ES5_PKc@PLT
	.loc 7 114 13 discriminator 3
	add	DWORD PTR -4[rbp], 1
.L86:
	.loc 7 114 37 discriminator 1
	mov	rax, QWORD PTR -32[rbp]
	mov	eax, DWORD PTR 4[rax]
	.loc 7 114 31 discriminator 1
	cmp	DWORD PTR -4[rbp], eax
	jl	.L87
.LBE110:
	.loc 7 118 19
	mov	rax, QWORD PTR -24[rbp]
	lea	rdx, .LC1[rip]
	mov	rsi, rdx
	mov	rdi, rax
	call	_ZStlsISt11char_traitsIcEERSt13basic_ostreamIcT_ES5_PKc@PLT
.LBE109:
	.loc 7 112 9 discriminator 2
	add	DWORD PTR -8[rbp], 1
.L85:
	.loc 7 112 33 discriminator 1
	mov	rax, QWORD PTR -32[rbp]
	mov	eax, DWORD PTR [rax]
	.loc 7 112 27 discriminator 1
	cmp	DWORD PTR -8[rbp], eax
	jl	.L88
.LBE108:
	.loc 7 120 16
	mov	rax, QWORD PTR -24[rbp]
	.loc 7 121 5
	leave
	.cfi_def_cfa 7, 8
	ret
	.cfi_endproc
.LFE3357:
	.size	_ZlsRSoRK6Matrix, .-_ZlsRSoRK6Matrix
	.section	.text._ZN6Matrix11mult_matrixES_S_,"axG",@progbits,_ZN6Matrix11mult_matrixES_S_,comdat
	.weak	_ZN6Matrix11mult_matrixES_S_
	.type	_ZN6Matrix11mult_matrixES_S_, @function
_ZN6Matrix11mult_matrixES_S_:
.LFB3358:
	.loc 7 123 19
	.cfi_startproc
	.cfi_personality 0x9b,DW.ref.__gxx_personality_v0
	.cfi_lsda 0x1b,.LLSDA3358
	endbr64
	push	rbp
	.cfi_def_cfa_offset 16
	.cfi_offset 6, -16
	mov	rbp, rsp
	.cfi_def_cfa_register 6
	push	rbx
	sub	rsp, 120
	.cfi_offset 3, -24
	mov	QWORD PTR -104[rbp], rdi
	mov	QWORD PTR -112[rbp], rsi
	mov	QWORD PTR -120[rbp], rdx
	.loc 7 123 19
	mov	rax, QWORD PTR fs:40
	mov	QWORD PTR -24[rbp], rax
	xor	eax, eax
	.loc 7 125 35
	mov	rax, QWORD PTR -112[rbp]
	mov	rdi, rax
	call	_ZNK6Matrix13getColumnsNumEv
	mov	ebx, eax
	.loc 7 125 60 discriminator 1
	mov	rax, QWORD PTR -120[rbp]
	mov	rdi, rax
	call	_ZNK6Matrix10getRowsNumEv
	.loc 7 125 38 discriminator 2
	cmp	ebx, eax
	setne	al
	.loc 7 125 9 discriminator 2
	test	al, al
	je	.L91
	.loc 7 126 27
	mov	rax, QWORD PTR -104[rbp]
	mov	rdi, rax
	call	_ZN6MatrixC1Ev
	jmp	.L90
.L91:
	.loc 7 128 70
	mov	rax, QWORD PTR -120[rbp]
	mov	rdi, rax
	call	_ZNK6Matrix13getColumnsNumEv
	mov	ebx, eax
	.loc 7 128 70 is_stmt 0 discriminator 1
	mov	rax, QWORD PTR -112[rbp]
	mov	rdi, rax
	call	_ZNK6Matrix10getRowsNumEv
	mov	ecx, eax
	.loc 7 128 70 discriminator 2
	lea	rax, -48[rbp]
	mov	edx, ebx
	mov	esi, ecx
	mov	rdi, rax
.LEHB4:
	call	_ZN6MatrixC1Eii
.LEHE4:
	.loc 7 129 27 is_stmt 1
	mov	rax, QWORD PTR -120[rbp]
	mov	rdi, rax
.LEHB5:
	call	_ZN6Matrix9transposeEv
.LEHE5:
.LBB111:
	.loc 7 131 18
	mov	DWORD PTR -72[rbp], 0
	.loc 7 131 9
	jmp	.L93
.L96:
.LBB112:
.LBB113:
	.loc 7 133 22
	mov	DWORD PTR -68[rbp], 0
	.loc 7 133 13
	jmp	.L94
.L95:
.LBB114:
	.loc 7 135 23
	mov	edx, DWORD PTR -68[rbp]
	mov	ecx, DWORD PTR -72[rbp]
	lea	rax, -48[rbp]
	mov	esi, ecx
	mov	rdi, rax
	call	_ZN6MatrixclEii
	.loc 7 135 30 discriminator 1
	pxor	xmm0, xmm0
	movss	DWORD PTR [rax], xmm0
	.loc 7 136 23
	pxor	xmm0, xmm0
	movss	DWORD PTR -84[rbp], xmm0
	.loc 7 137 23
	pxor	xmm0, xmm0
	movss	DWORD PTR -80[rbp], xmm0
	.loc 7 139 49
	mov	rax, QWORD PTR -120[rbp]
	mov	rdi, rax
	call	_ZNK6Matrix13getColumnsNumEv
	.loc 7 139 50 discriminator 1
	mov	DWORD PTR -76[rbp], eax
	.loc 7 141 51
	mov	rax, QWORD PTR -112[rbp]
	add	rax, 8
	mov	rdi, rax
	call	_ZNKSt12__shared_ptrIA_fLN9__gnu_cxx12_Lock_policyE2EE3getEv
	.loc 7 141 63 discriminator 1
	mov	rdx, QWORD PTR -112[rbp]
	mov	edx, DWORD PTR 4[rdx]
	.loc 7 141 75 discriminator 1
	imul	edx, DWORD PTR -72[rbp]
	movsx	rdx, edx
	.loc 7 141 78 discriminator 1
	sal	rdx, 2
	.loc 7 141 33 discriminator 1
	add	rax, rdx
	.loc 7 141 78 discriminator 1
	mov	QWORD PTR -64[rbp], rax
	.loc 7 142 51
	mov	rax, QWORD PTR -120[rbp]
	add	rax, 8
	mov	rdi, rax
	call	_ZNKSt12__shared_ptrIA_fLN9__gnu_cxx12_Lock_policyE2EE3getEv
	.loc 7 142 63 discriminator 1
	mov	rdx, QWORD PTR -120[rbp]
	mov	edx, DWORD PTR 4[rdx]
	.loc 7 142 75 discriminator 1
	imul	edx, DWORD PTR -68[rbp]
	movsx	rdx, edx
	.loc 7 142 78 discriminator 1
	sal	rdx, 2
	.loc 7 142 33 discriminator 1
	add	rax, rdx
	.loc 7 142 78 discriminator 1
	mov	QWORD PTR -56[rbp], rax
	.loc 7 143 17
#APP
# 143 "task_1.cpp" 1
	movss xmm2, DWORD PTR -80[rbp]
mov rax, QWORD PTR -64[rbp]
mov rbx, QWORD PTR -56[rbp]
mov rcx, 0
add_loop:
cmp ecx, DWORD PTR -76[rbp]
jge add_loop_end
add rcx, 4
cmp ecx, DWORD PTR -76[rbp]
jle united_add
jmp splitted_add
united_add:
movups xmm0, xmmword ptr [rax]
movups xmm1, xmmword ptr [rbx]
mulps xmm0, xmm1
addps xmm0, xmm0 
addps xmm0, xmm0 
addss xmm2, xmm0
add rax, 16
add rbx, 16
jmp add_loop
splitted_add:
sub rcx, 4
mov edx, DWORD PTR -76[rbp]
sub rdx, rcx
mov rcx, rdx
splitted_add_loop:
movss xmm0, dword ptr [rax]
movss xmm1, dword ptr [rbx]
mulss xmm0, xmm1
addss xmm2, xmm0
add rax, 4
add rbx, 4
loop splitted_add_loop
add_loop_end:
movss DWORD PTR -84[rbp], xmm2

# 0 "" 2
	.loc 7 186 23
#NO_APP
	mov	edx, DWORD PTR -68[rbp]
	mov	ecx, DWORD PTR -72[rbp]
	lea	rax, -48[rbp]
	mov	esi, ecx
	mov	rdi, rax
	call	_ZN6MatrixclEii
	.loc 7 186 23 is_stmt 0 discriminator 1
	movss	xmm1, DWORD PTR [rax]
	.loc 7 186 30 is_stmt 1 discriminator 1
	movss	xmm0, DWORD PTR -84[rbp]
	addss	xmm0, xmm1
	movss	DWORD PTR [rax], xmm0
.LBE114:
	.loc 7 133 13 discriminator 3
	add	DWORD PTR -68[rbp], 1
.L94:
	.loc 7 133 52 discriminator 1
	mov	rax, QWORD PTR -120[rbp]
	mov	rdi, rax
	call	_ZNK6Matrix10getRowsNumEv
	.loc 7 133 31 discriminator 1
	cmp	DWORD PTR -68[rbp], eax
	setl	al
	test	al, al
	jne	.L95
.LBE113:
.LBE112:
	.loc 7 131 9 discriminator 2
	add	DWORD PTR -72[rbp], 1
.L93:
	.loc 7 131 48 discriminator 1
	mov	rax, QWORD PTR -112[rbp]
	mov	rdi, rax
	call	_ZNK6Matrix10getRowsNumEv
	.loc 7 131 27 discriminator 1
	cmp	DWORD PTR -72[rbp], eax
	setl	al
	test	al, al
	jne	.L96
.LBE111:
	.loc 7 189 16
	lea	rdx, -48[rbp]
	mov	rax, QWORD PTR -104[rbp]
	mov	rsi, rdx
	mov	rdi, rax
	call	_ZN6MatrixC1EOS_
	.loc 7 190 5
	lea	rax, -48[rbp]
	mov	rdi, rax
	call	_ZN6MatrixD1Ev
	jmp	.L90
.L101:
	endbr64
	mov	rbx, rax
	lea	rax, -48[rbp]
	mov	rdi, rax
	call	_ZN6MatrixD1Ev
	mov	rax, rbx
	mov	rdx, QWORD PTR -24[rbp]
	sub	rdx, QWORD PTR fs:40
	je	.L99
	call	__stack_chk_fail@PLT
.L99:
	mov	rdi, rax
.LEHB6:
	call	_Unwind_Resume@PLT
.LEHE6:
.L90:
	mov	rax, QWORD PTR -24[rbp]
	sub	rax, QWORD PTR fs:40
	je	.L100
	call	__stack_chk_fail@PLT
.L100:
	mov	rax, QWORD PTR -104[rbp]
	mov	rbx, QWORD PTR -8[rbp]
	leave
	.cfi_def_cfa 7, 8
	ret
	.cfi_endproc
.LFE3358:
	.section	.gcc_except_table._ZN6Matrix11mult_matrixES_S_,"aG",@progbits,_ZN6Matrix11mult_matrixES_S_,comdat
.LLSDA3358:
	.byte	0xff
	.byte	0xff
	.byte	0x1
	.uleb128 .LLSDACSE3358-.LLSDACSB3358
.LLSDACSB3358:
	.uleb128 .LEHB4-.LFB3358
	.uleb128 .LEHE4-.LEHB4
	.uleb128 0
	.uleb128 0
	.uleb128 .LEHB5-.LFB3358
	.uleb128 .LEHE5-.LEHB5
	.uleb128 .L101-.LFB3358
	.uleb128 0
	.uleb128 .LEHB6-.LFB3358
	.uleb128 .LEHE6-.LEHB6
	.uleb128 0
	.uleb128 0
.LLSDACSE3358:
	.section	.text._ZN6Matrix11mult_matrixES_S_,"axG",@progbits,_ZN6Matrix11mult_matrixES_S_,comdat
	.size	_ZN6Matrix11mult_matrixES_S_, .-_ZN6Matrix11mult_matrixES_S_
	.section	.rodata
.LC3:
	.string	"\320\232\320\276\320\273-\320\262\320\276 \321\201\321\202\321\200\320\276\320\272: "
	.align 8
.LC4:
	.string	"\320\232\320\276\320\273-\320\262\320\276 \321\201\321\202\320\276\320\273\320\261\321\206\320\276\320\262: "
.LC5:
	.string	"Mat1\n"
.LC6:
	.string	"Mat2\n"
.LC7:
	.string	"Result\n"
	.text
	.globl	main
	.type	main, @function
main:
.LFB3359:
	.loc 7 194 1
	.cfi_startproc
	.cfi_personality 0x9b,DW.ref.__gxx_personality_v0
	.cfi_lsda 0x1b,.LLSDA3359
	endbr64
	push	rbp
	.cfi_def_cfa_offset 16
	.cfi_offset 6, -16
	mov	rbp, rsp
	.cfi_def_cfa_register 6
	push	rbx
	sub	rsp, 216
	.cfi_offset 3, -24
	mov	DWORD PTR -212[rbp], edi
	mov	QWORD PTR -224[rbp], rsi
	.loc 7 194 1
	mov	rax, QWORD PTR fs:40
	mov	QWORD PTR -24[rbp], rax
	xor	eax, eax
	.loc 7 195 15
	mov	edi, 0
	call	time@PLT
	.loc 7 195 10 discriminator 1
	mov	edi, eax
	call	srand@PLT
	.loc 7 196 51
	mov	rax, QWORD PTR __cpu_model@GOTPCREL[rip]
	mov	eax, DWORD PTR 12[rax]
	and	eax, 8
	mov	esi, eax
	lea	rax, _ZSt4cout[rip]
	mov	rdi, rax
.LEHB7:
	call	_ZNSolsEi@PLT
	mov	rdx, rax
	.loc 7 196 51 is_stmt 0 discriminator 1
	lea	rax, .LC1[rip]
	mov	rsi, rax
	mov	rdi, rdx
	call	_ZStlsISt11char_traitsIcEERSt13basic_ostreamIcT_ES5_PKc@PLT
	.loc 7 197 52 is_stmt 1
	mov	rax, QWORD PTR __cpu_model@GOTPCREL[rip]
	mov	eax, DWORD PTR 12[rax]
	and	eax, 16
	mov	esi, eax
	lea	rax, _ZSt4cout[rip]
	mov	rdi, rax
	call	_ZNSolsEi@PLT
	mov	rdx, rax
	.loc 7 197 52 is_stmt 0 discriminator 1
	lea	rax, .LC1[rip]
	mov	rsi, rax
	mov	rdi, rdx
	call	_ZStlsISt11char_traitsIcEERSt13basic_ostreamIcT_ES5_PKc@PLT
	.loc 7 198 52 is_stmt 1
	mov	rax, QWORD PTR __cpu_model@GOTPCREL[rip]
	mov	eax, DWORD PTR 12[rax]
	and	eax, 32
	mov	esi, eax
	lea	rax, _ZSt4cout[rip]
	mov	rdi, rax
	call	_ZNSolsEi@PLT
	mov	rdx, rax
	.loc 7 198 52 is_stmt 0 discriminator 1
	lea	rax, .LC1[rip]
	mov	rsi, rax
	mov	rdi, rdx
	call	_ZStlsISt11char_traitsIcEERSt13basic_ostreamIcT_ES5_PKc@PLT
	.loc 7 199 51 is_stmt 1
	mov	rax, QWORD PTR __cpu_model@GOTPCREL[rip]
	mov	eax, DWORD PTR 12[rax]
	and	eax, 512
	mov	esi, eax
	lea	rax, _ZSt4cout[rip]
	mov	rdi, rax
	call	_ZNSolsEi@PLT
	mov	rdx, rax
	.loc 7 199 51 is_stmt 0 discriminator 1
	lea	rax, .LC1[rip]
	mov	rsi, rax
	mov	rdi, rdx
	call	_ZStlsISt11char_traitsIcEERSt13basic_ostreamIcT_ES5_PKc@PLT
	.loc 7 200 52 is_stmt 1
	mov	rax, QWORD PTR __cpu_model@GOTPCREL[rip]
	mov	eax, DWORD PTR 12[rax]
	and	eax, 1024
	mov	esi, eax
	lea	rax, _ZSt4cout[rip]
	mov	rdi, rax
	call	_ZNSolsEi@PLT
	mov	rdx, rax
	.loc 7 200 52 is_stmt 0 discriminator 1
	lea	rax, .LC1[rip]
	mov	rsi, rax
	mov	rdi, rdx
	call	_ZStlsISt11char_traitsIcEERSt13basic_ostreamIcT_ES5_PKc@PLT
	.loc 7 201 55 is_stmt 1
	mov	rax, QWORD PTR __cpu_model@GOTPCREL[rip]
	mov	eax, DWORD PTR 12[rax]
	and	eax, 32768
	mov	esi, eax
	lea	rax, _ZSt4cout[rip]
	mov	rdi, rax
	call	_ZNSolsEi@PLT
	mov	rdx, rax
	.loc 7 201 55 is_stmt 0 discriminator 1
	lea	rax, .LC1[rip]
	mov	rsi, rax
	mov	rdi, rdx
	call	_ZStlsISt11char_traitsIcEERSt13basic_ostreamIcT_ES5_PKc@PLT
	.loc 7 204 18 is_stmt 1
	lea	rax, .LC3[rip]
	mov	rsi, rax
	lea	rax, _ZSt4cout[rip]
	mov	rdi, rax
	call	_ZStlsISt11char_traitsIcEERSt13basic_ostreamIcT_ES5_PKc@PLT
	.loc 7 205 17
	lea	rax, -192[rbp]
	mov	rsi, rax
	lea	rax, _ZSt3cin[rip]
	mov	rdi, rax
	call	_ZNSirsERm@PLT
	.loc 7 206 18
	lea	rax, .LC4[rip]
	mov	rsi, rax
	lea	rax, _ZSt4cout[rip]
	mov	rdi, rax
	call	_ZStlsISt11char_traitsIcEERSt13basic_ostreamIcT_ES5_PKc@PLT
	.loc 7 207 17
	lea	rax, -184[rbp]
	mov	rsi, rax
	lea	rax, _ZSt3cin[rip]
	mov	rdi, rax
	call	_ZNSirsERm@PLT
	.loc 7 208 42
	mov	rax, QWORD PTR -184[rbp]
	mov	edx, eax
	mov	rax, QWORD PTR -192[rbp]
	mov	ecx, eax
	lea	rax, -176[rbp]
	mov	esi, ecx
	mov	rdi, rax
	call	_ZN6MatrixC1Eii
.LEHE7:
.LBB115:
	.loc 7 209 14
	mov	DWORD PTR -208[rbp], 0
	.loc 7 209 5
	jmp	.L103
.L106:
.LBB116:
.LBB117:
	.loc 7 211 18
	mov	DWORD PTR -204[rbp], 0
	.loc 7 211 9
	jmp	.L104
.L105:
	.loc 7 213 34
	call	rand@PLT
	mov	edx, eax
	.loc 7 213 37 discriminator 1
	movsx	rax, edx
	imul	rax, rax, 1717986919
	shr	rax, 32
	mov	ecx, eax
	sar	ecx, 2
	mov	eax, edx
	sar	eax, 31
	sub	ecx, eax
	mov	eax, ecx
	sal	eax, 2
	add	eax, ecx
	add	eax, eax
	mov	ecx, edx
	sub	ecx, eax
	.loc 7 213 28 discriminator 1
	pxor	xmm0, xmm0
	cvtsi2ss	xmm0, ecx
	movss	DWORD PTR -216[rbp], xmm0
	.loc 7 213 21 discriminator 1
	mov	edx, DWORD PTR -204[rbp]
	mov	ecx, DWORD PTR -208[rbp]
	lea	rax, -176[rbp]
	mov	esi, ecx
	mov	rdi, rax
	call	_ZN6MatrixclEii
	.loc 7 213 28 discriminator 2
	movss	xmm0, DWORD PTR -216[rbp]
	movss	DWORD PTR [rax], xmm0
	.loc 7 211 9 discriminator 3
	add	DWORD PTR -204[rbp], 1
.L104:
	.loc 7 211 51 discriminator 1
	lea	rax, -176[rbp]
	mov	rdi, rax
	call	_ZNK6Matrix13getColumnsNumEv
	.loc 7 211 27 discriminator 1
	cmp	DWORD PTR -204[rbp], eax
	setl	al
	test	al, al
	jne	.L105
.LBE117:
.LBE116:
	.loc 7 209 5 discriminator 2
	add	DWORD PTR -208[rbp], 1
.L103:
	.loc 7 209 44 discriminator 1
	lea	rax, -176[rbp]
	mov	rdi, rax
	call	_ZNK6Matrix10getRowsNumEv
	.loc 7 209 23 discriminator 1
	cmp	DWORD PTR -208[rbp], eax
	setl	al
	test	al, al
	jne	.L106
.LBE115:
	.loc 7 217 18
	lea	rax, .LC3[rip]
	mov	rsi, rax
	lea	rax, _ZSt4cout[rip]
	mov	rdi, rax
.LEHB8:
	call	_ZStlsISt11char_traitsIcEERSt13basic_ostreamIcT_ES5_PKc@PLT
	.loc 7 218 17
	lea	rax, -192[rbp]
	mov	rsi, rax
	lea	rax, _ZSt3cin[rip]
	mov	rdi, rax
	call	_ZNSirsERm@PLT
	.loc 7 219 18
	lea	rax, .LC4[rip]
	mov	rsi, rax
	lea	rax, _ZSt4cout[rip]
	mov	rdi, rax
	call	_ZStlsISt11char_traitsIcEERSt13basic_ostreamIcT_ES5_PKc@PLT
	.loc 7 220 17
	lea	rax, -184[rbp]
	mov	rsi, rax
	lea	rax, _ZSt3cin[rip]
	mov	rdi, rax
	call	_ZNSirsERm@PLT
	.loc 7 221 42
	mov	rax, QWORD PTR -184[rbp]
	mov	edx, eax
	mov	rax, QWORD PTR -192[rbp]
	mov	ecx, eax
	lea	rax, -144[rbp]
	mov	esi, ecx
	mov	rdi, rax
	call	_ZN6MatrixC1Eii
.LEHE8:
.LBB118:
	.loc 7 222 14
	mov	DWORD PTR -200[rbp], 0
	.loc 7 222 5
	jmp	.L107
.L110:
.LBB119:
.LBB120:
	.loc 7 224 18
	mov	DWORD PTR -196[rbp], 0
	.loc 7 224 9
	jmp	.L108
.L109:
	.loc 7 226 34
	call	rand@PLT
	mov	edx, eax
	.loc 7 226 37 discriminator 1
	movsx	rax, edx
	imul	rax, rax, 1717986919
	shr	rax, 32
	mov	ecx, eax
	sar	ecx, 2
	mov	eax, edx
	sar	eax, 31
	sub	ecx, eax
	mov	eax, ecx
	sal	eax, 2
	add	eax, ecx
	add	eax, eax
	mov	ecx, edx
	sub	ecx, eax
	.loc 7 226 28 discriminator 1
	pxor	xmm1, xmm1
	cvtsi2ss	xmm1, ecx
	movss	DWORD PTR -216[rbp], xmm1
	.loc 7 226 21 discriminator 1
	mov	edx, DWORD PTR -196[rbp]
	mov	ecx, DWORD PTR -200[rbp]
	lea	rax, -144[rbp]
	mov	esi, ecx
	mov	rdi, rax
	call	_ZN6MatrixclEii
	.loc 7 226 28 discriminator 2
	movss	xmm1, DWORD PTR -216[rbp]
	movss	DWORD PTR [rax], xmm1
	.loc 7 224 9 discriminator 3
	add	DWORD PTR -196[rbp], 1
.L108:
	.loc 7 224 51 discriminator 1
	lea	rax, -144[rbp]
	mov	rdi, rax
	call	_ZNK6Matrix13getColumnsNumEv
	.loc 7 224 27 discriminator 1
	cmp	DWORD PTR -196[rbp], eax
	setl	al
	test	al, al
	jne	.L109
.LBE120:
.LBE119:
	.loc 7 222 5 discriminator 2
	add	DWORD PTR -200[rbp], 1
.L107:
	.loc 7 222 44 discriminator 1
	lea	rax, -144[rbp]
	mov	rdi, rax
	call	_ZNK6Matrix10getRowsNumEv
	.loc 7 222 23 discriminator 1
	cmp	DWORD PTR -200[rbp], eax
	setl	al
	test	al, al
	jne	.L110
.LBE118:
	.loc 7 230 18
	lea	rax, .LC5[rip]
	mov	rsi, rax
	lea	rax, _ZSt4cout[rip]
	mov	rdi, rax
.LEHB9:
	call	_ZStlsISt11char_traitsIcEERSt13basic_ostreamIcT_ES5_PKc@PLT
	mov	rdx, rax
	.loc 7 231 18
	lea	rax, -176[rbp]
	mov	rsi, rax
	mov	rdi, rdx
	call	_ZlsRSoRK6Matrix
	mov	rdx, rax
	.loc 7 231 30 discriminator 1
	lea	rax, .LC1[rip]
	mov	rsi, rax
	mov	rdi, rdx
	call	_ZStlsISt11char_traitsIcEERSt13basic_ostreamIcT_ES5_PKc@PLT
	.loc 7 232 18
	lea	rax, .LC6[rip]
	mov	rsi, rax
	lea	rax, _ZSt4cout[rip]
	mov	rdi, rax
	call	_ZStlsISt11char_traitsIcEERSt13basic_ostreamIcT_ES5_PKc@PLT
	mov	rdx, rax
	.loc 7 233 18
	lea	rax, -144[rbp]
	mov	rsi, rax
	mov	rdi, rdx
	call	_ZlsRSoRK6Matrix
	mov	rdx, rax
	.loc 7 233 30 discriminator 1
	lea	rax, .LC1[rip]
	mov	rsi, rax
	mov	rdi, rdx
	call	_ZStlsISt11char_traitsIcEERSt13basic_ostreamIcT_ES5_PKc@PLT
	.loc 7 235 54
	lea	rdx, -144[rbp]
	lea	rax, -48[rbp]
	mov	rsi, rdx
	mov	rdi, rax
	call	_ZN6MatrixC1ERKS_
.LEHE9:
	.loc 7 235 54 is_stmt 0 discriminator 2
	lea	rdx, -176[rbp]
	lea	rax, -80[rbp]
	mov	rsi, rdx
	mov	rdi, rax
.LEHB10:
	call	_ZN6MatrixC1ERKS_
.LEHE10:
	.loc 7 235 54 discriminator 4
	lea	rax, -112[rbp]
	lea	rdx, -48[rbp]
	lea	rcx, -80[rbp]
	mov	rsi, rcx
	mov	rdi, rax
.LEHB11:
	call	_ZN6Matrix11mult_matrixES_S_
.LEHE11:
	.loc 7 235 54 discriminator 6
	lea	rax, -80[rbp]
	mov	rdi, rax
	call	_ZN6MatrixD1Ev
	.loc 7 235 54 discriminator 1
	lea	rax, -48[rbp]
	mov	rdi, rax
	call	_ZN6MatrixD1Ev
	.loc 7 236 18 is_stmt 1
	lea	rax, .LC7[rip]
	mov	rsi, rax
	lea	rax, _ZSt4cout[rip]
	mov	rdi, rax
.LEHB12:
	call	_ZStlsISt11char_traitsIcEERSt13basic_ostreamIcT_ES5_PKc@PLT
	mov	rdx, rax
	.loc 7 236 32 discriminator 1
	lea	rax, -112[rbp]
	mov	rsi, rax
	mov	rdi, rdx
	call	_ZlsRSoRK6Matrix
.LEHE12:
	.loc 7 238 12
	mov	ebx, 0
	.loc 7 239 1
	lea	rax, -112[rbp]
	mov	rdi, rax
	call	_ZN6MatrixD1Ev
	.loc 7 239 1 is_stmt 0 discriminator 1
	lea	rax, -144[rbp]
	mov	rdi, rax
	call	_ZN6MatrixD1Ev
	.loc 7 239 1 discriminator 2
	lea	rax, -176[rbp]
	mov	rdi, rax
	call	_ZN6MatrixD1Ev
	.loc 7 239 1
	mov	eax, ebx
	mov	rdx, QWORD PTR -24[rbp]
	sub	rdx, QWORD PTR fs:40
	je	.L118
	jmp	.L124
.L122:
	endbr64
	.loc 7 235 54 is_stmt 1 discriminator 5
	mov	rbx, rax
	lea	rax, -80[rbp]
	mov	rdi, rax
	call	_ZN6MatrixD1Ev
	jmp	.L113
.L121:
	endbr64
	.loc 7 235 54 is_stmt 0
	mov	rbx, rax
.L113:
	lea	rax, -48[rbp]
	mov	rdi, rax
	call	_ZN6MatrixD1Ev
	jmp	.L114
.L123:
	endbr64
	.loc 7 239 1 is_stmt 1
	mov	rbx, rax
	lea	rax, -112[rbp]
	mov	rdi, rax
	call	_ZN6MatrixD1Ev
	jmp	.L114
.L120:
	endbr64
	mov	rbx, rax
.L114:
	lea	rax, -144[rbp]
	mov	rdi, rax
	call	_ZN6MatrixD1Ev
	jmp	.L116
.L119:
	endbr64
	mov	rbx, rax
.L116:
	lea	rax, -176[rbp]
	mov	rdi, rax
	call	_ZN6MatrixD1Ev
	mov	rax, rbx
	mov	rdx, QWORD PTR -24[rbp]
	sub	rdx, QWORD PTR fs:40
	je	.L117
	call	__stack_chk_fail@PLT
.L117:
	mov	rdi, rax
.LEHB13:
	call	_Unwind_Resume@PLT
.LEHE13:
.L124:
	call	__stack_chk_fail@PLT
.L118:
	mov	rbx, QWORD PTR -8[rbp]
	leave
	.cfi_def_cfa 7, 8
	ret
	.cfi_endproc
.LFE3359:
	.section	.gcc_except_table,"a",@progbits
.LLSDA3359:
	.byte	0xff
	.byte	0xff
	.byte	0x1
	.uleb128 .LLSDACSE3359-.LLSDACSB3359
.LLSDACSB3359:
	.uleb128 .LEHB7-.LFB3359
	.uleb128 .LEHE7-.LEHB7
	.uleb128 0
	.uleb128 0
	.uleb128 .LEHB8-.LFB3359
	.uleb128 .LEHE8-.LEHB8
	.uleb128 .L119-.LFB3359
	.uleb128 0
	.uleb128 .LEHB9-.LFB3359
	.uleb128 .LEHE9-.LEHB9
	.uleb128 .L120-.LFB3359
	.uleb128 0
	.uleb128 .LEHB10-.LFB3359
	.uleb128 .LEHE10-.LEHB10
	.uleb128 .L121-.LFB3359
	.uleb128 0
	.uleb128 .LEHB11-.LFB3359
	.uleb128 .LEHE11-.LEHB11
	.uleb128 .L122-.LFB3359
	.uleb128 0
	.uleb128 .LEHB12-.LFB3359
	.uleb128 .LEHE12-.LEHB12
	.uleb128 .L123-.LFB3359
	.uleb128 0
	.uleb128 .LEHB13-.LFB3359
	.uleb128 .LEHE13-.LEHB13
	.uleb128 0
	.uleb128 0
.LLSDACSE3359:
	.text
	.size	main, .-main
	.section	.text._ZNSt16_Sp_counted_baseILN9__gnu_cxx12_Lock_policyE2EE10_M_destroyEv,"axG",@progbits,_ZNSt16_Sp_counted_baseILN9__gnu_cxx12_Lock_policyE2EE10_M_destroyEv,comdat
	.align 2
	.weak	_ZNSt16_Sp_counted_baseILN9__gnu_cxx12_Lock_policyE2EE10_M_destroyEv
	.type	_ZNSt16_Sp_counted_baseILN9__gnu_cxx12_Lock_policyE2EE10_M_destroyEv, @function
_ZNSt16_Sp_counted_baseILN9__gnu_cxx12_Lock_policyE2EE10_M_destroyEv:
.LFB3662:
	.loc 4 143 7
	.cfi_startproc
	endbr64
	push	rbp
	.cfi_def_cfa_offset 16
	.cfi_offset 6, -16
	mov	rbp, rsp
	.cfi_def_cfa_register 6
	sub	rsp, 16
	mov	QWORD PTR -8[rbp], rdi
	.loc 4 144 9
	cmp	QWORD PTR -8[rbp], 0
	je	.L127
	.loc 4 144 9 is_stmt 0 discriminator 1
	mov	rax, QWORD PTR -8[rbp]
	mov	rax, QWORD PTR [rax]
	add	rax, 8
	mov	rdx, QWORD PTR [rax]
	mov	rax, QWORD PTR -8[rbp]
	mov	rdi, rax
	call	rdx
.LVL2:
.L127:
	.loc 4 144 22 is_stmt 1
	nop
	leave
	.cfi_def_cfa 7, 8
	ret
	.cfi_endproc
.LFE3662:
	.size	_ZNSt16_Sp_counted_baseILN9__gnu_cxx12_Lock_policyE2EE10_M_destroyEv, .-_ZNSt16_Sp_counted_baseILN9__gnu_cxx12_Lock_policyE2EE10_M_destroyEv
	.section	.text._ZNSt16_Sp_counted_baseILN9__gnu_cxx12_Lock_policyE2EE24_M_release_last_use_coldEv,"axG",@progbits,_ZNSt16_Sp_counted_baseILN9__gnu_cxx12_Lock_policyE2EE24_M_release_last_use_coldEv,comdat
	.align 2
	.weak	_ZNSt16_Sp_counted_baseILN9__gnu_cxx12_Lock_policyE2EE24_M_release_last_use_coldEv
	.type	_ZNSt16_Sp_counted_baseILN9__gnu_cxx12_Lock_policyE2EE24_M_release_last_use_coldEv, @function
_ZNSt16_Sp_counted_baseILN9__gnu_cxx12_Lock_policyE2EE24_M_release_last_use_coldEv:
.LFB3663:
	.loc 4 198 7
	.cfi_startproc
	endbr64
	push	rbp
	.cfi_def_cfa_offset 16
	.cfi_offset 6, -16
	mov	rbp, rsp
	.cfi_def_cfa_register 6
	sub	rsp, 16
	mov	QWORD PTR -8[rbp], rdi
	.loc 4 199 28
	mov	rax, QWORD PTR -8[rbp]
	mov	rdi, rax
	call	_ZNSt16_Sp_counted_baseILN9__gnu_cxx12_Lock_policyE2EE19_M_release_last_useEv
	.loc 4 199 32
	nop
	leave
	.cfi_def_cfa 7, 8
	ret
	.cfi_endproc
.LFE3663:
	.size	_ZNSt16_Sp_counted_baseILN9__gnu_cxx12_Lock_policyE2EE24_M_release_last_use_coldEv, .-_ZNSt16_Sp_counted_baseILN9__gnu_cxx12_Lock_policyE2EE24_M_release_last_use_coldEv
	.section	.text._ZNSt10shared_ptrIA_fEC2Ev,"axG",@progbits,_ZNSt10shared_ptrIA_fEC5Ev,comdat
	.align 2
	.weak	_ZNSt10shared_ptrIA_fEC2Ev
	.type	_ZNSt10shared_ptrIA_fEC2Ev, @function
_ZNSt10shared_ptrIA_fEC2Ev:
.LFB3669:
	.loc 6 202 17
	.cfi_startproc
	endbr64
	push	rbp
	.cfi_def_cfa_offset 16
	.cfi_offset 6, -16
	mov	rbp, rsp
	.cfi_def_cfa_register 6
	sub	rsp, 16
	mov	QWORD PTR -8[rbp], rdi
.LBB121:
	.loc 6 202 59
	mov	rax, QWORD PTR -8[rbp]
	mov	rdi, rax
	call	_ZNSt12__shared_ptrIA_fLN9__gnu_cxx12_Lock_policyE2EEC2Ev
.LBE121:
	.loc 6 202 63
	nop
	leave
	.cfi_def_cfa 7, 8
	ret
	.cfi_endproc
.LFE3669:
	.size	_ZNSt10shared_ptrIA_fEC2Ev, .-_ZNSt10shared_ptrIA_fEC2Ev
	.weak	_ZNSt10shared_ptrIA_fEC1Ev
	.set	_ZNSt10shared_ptrIA_fEC1Ev,_ZNSt10shared_ptrIA_fEC2Ev
	.section	.text._ZNSt14__shared_countILN9__gnu_cxx12_Lock_policyE2EED2Ev,"axG",@progbits,_ZNSt14__shared_countILN9__gnu_cxx12_Lock_policyE2EED5Ev,comdat
	.align 2
	.weak	_ZNSt14__shared_countILN9__gnu_cxx12_Lock_policyE2EED2Ev
	.type	_ZNSt14__shared_countILN9__gnu_cxx12_Lock_policyE2EED2Ev, @function
_ZNSt14__shared_countILN9__gnu_cxx12_Lock_policyE2EED2Ev:
.LFB3672:
	.loc 4 1068 7
	.cfi_startproc
	endbr64
	push	rbp
	.cfi_def_cfa_offset 16
	.cfi_offset 6, -16
	mov	rbp, rsp
	.cfi_def_cfa_register 6
	sub	rsp, 16
	mov	QWORD PTR -8[rbp], rdi
.LBB122:
	.loc 4 1070 6
	mov	rax, QWORD PTR -8[rbp]
	mov	rax, QWORD PTR [rax]
	.loc 4 1070 2
	test	rax, rax
	je	.L132
	.loc 4 1071 4
	mov	rax, QWORD PTR -8[rbp]
	mov	rax, QWORD PTR [rax]
	.loc 4 1071 21
	mov	rdi, rax
	call	_ZNSt16_Sp_counted_baseILN9__gnu_cxx12_Lock_policyE2EE10_M_releaseEv
.L132:
.LBE122:
	.loc 4 1072 7
	nop
	leave
	.cfi_def_cfa 7, 8
	ret
	.cfi_endproc
.LFE3672:
	.size	_ZNSt14__shared_countILN9__gnu_cxx12_Lock_policyE2EED2Ev, .-_ZNSt14__shared_countILN9__gnu_cxx12_Lock_policyE2EED2Ev
	.weak	_ZNSt14__shared_countILN9__gnu_cxx12_Lock_policyE2EED1Ev
	.set	_ZNSt14__shared_countILN9__gnu_cxx12_Lock_policyE2EED1Ev,_ZNSt14__shared_countILN9__gnu_cxx12_Lock_policyE2EED2Ev
	.section	.text._ZNSt10shared_ptrIA_fEC2EDn,"axG",@progbits,_ZNSt10shared_ptrIA_fEC5EDn,comdat
	.align 2
	.weak	_ZNSt10shared_ptrIA_fEC2EDn
	.type	_ZNSt10shared_ptrIA_fEC2EDn, @function
_ZNSt10shared_ptrIA_fEC2EDn:
.LFB3675:
	.loc 6 412 17
	.cfi_startproc
	endbr64
	push	rbp
	.cfi_def_cfa_offset 16
	.cfi_offset 6, -16
	mov	rbp, rsp
	.cfi_def_cfa_register 6
	sub	rsp, 16
	mov	QWORD PTR -8[rbp], rdi
	mov	QWORD PTR -16[rbp], rsi
.LBB123:
	.loc 6 412 61
	mov	rax, QWORD PTR -8[rbp]
	mov	rdi, rax
	call	_ZNSt10shared_ptrIA_fEC1Ev
.LBE123:
	.loc 6 412 65
	nop
	leave
	.cfi_def_cfa 7, 8
	ret
	.cfi_endproc
.LFE3675:
	.size	_ZNSt10shared_ptrIA_fEC2EDn, .-_ZNSt10shared_ptrIA_fEC2EDn
	.weak	_ZNSt10shared_ptrIA_fEC1EDn
	.set	_ZNSt10shared_ptrIA_fEC1EDn,_ZNSt10shared_ptrIA_fEC2EDn
	.section	.text._ZNSt10shared_ptrIA_fEaSEOS1_,"axG",@progbits,_ZNSt10shared_ptrIA_fEaSEOS1_,comdat
	.align 2
	.weak	_ZNSt10shared_ptrIA_fEaSEOS1_
	.type	_ZNSt10shared_ptrIA_fEaSEOS1_, @function
_ZNSt10shared_ptrIA_fEaSEOS1_:
.LFB3677:
	.loc 6 438 7
	.cfi_startproc
	endbr64
	push	rbp
	.cfi_def_cfa_offset 16
	.cfi_offset 6, -16
	mov	rbp, rsp
	.cfi_def_cfa_register 6
	push	rbx
	sub	rsp, 24
	.cfi_offset 3, -24
	mov	QWORD PTR -24[rbp], rdi
	mov	QWORD PTR -32[rbp], rsi
	.loc 6 440 36
	mov	rbx, QWORD PTR -24[rbp]
	.loc 6 440 46
	mov	rax, QWORD PTR -32[rbp]
	mov	rdi, rax
	call	_ZSt4moveIRSt10shared_ptrIA_fEEONSt16remove_referenceIT_E4typeEOS5_
	.loc 6 440 36 discriminator 1
	mov	rsi, rax
	mov	rdi, rbx
	call	_ZNSt12__shared_ptrIA_fLN9__gnu_cxx12_Lock_policyE2EEaSEOS3_
	.loc 6 441 10
	mov	rax, QWORD PTR -24[rbp]
	.loc 6 442 7
	mov	rbx, QWORD PTR -8[rbp]
	leave
	.cfi_def_cfa 7, 8
	ret
	.cfi_endproc
.LFE3677:
	.size	_ZNSt10shared_ptrIA_fEaSEOS1_, .-_ZNSt10shared_ptrIA_fEaSEOS1_
	.section	.text._ZNSt10shared_ptrIA_fEC2IfvEEPT_,"axG",@progbits,_ZNSt10shared_ptrIA_fEC5IfvEEPT_,comdat
	.align 2
	.weak	_ZNSt10shared_ptrIA_fEC2IfvEEPT_
	.type	_ZNSt10shared_ptrIA_fEC2IfvEEPT_, @function
_ZNSt10shared_ptrIA_fEC2IfvEEPT_:
.LFB3679:
	.loc 6 214 2
	.cfi_startproc
	endbr64
	push	rbp
	.cfi_def_cfa_offset 16
	.cfi_offset 6, -16
	mov	rbp, rsp
	.cfi_def_cfa_register 6
	sub	rsp, 16
	mov	QWORD PTR -8[rbp], rdi
	mov	QWORD PTR -16[rbp], rsi
.LBB124:
	.loc 6 214 46
	mov	rax, QWORD PTR -8[rbp]
	mov	rdx, QWORD PTR -16[rbp]
	mov	rsi, rdx
	mov	rdi, rax
	call	_ZNSt12__shared_ptrIA_fLN9__gnu_cxx12_Lock_policyE2EEC2IfvEEPT_
.LBE124:
	.loc 6 214 50
	nop
	leave
	.cfi_def_cfa 7, 8
	ret
	.cfi_endproc
.LFE3679:
	.size	_ZNSt10shared_ptrIA_fEC2IfvEEPT_, .-_ZNSt10shared_ptrIA_fEC2IfvEEPT_
	.weak	_ZNSt10shared_ptrIA_fEC1IfvEEPT_
	.set	_ZNSt10shared_ptrIA_fEC1IfvEEPT_,_ZNSt10shared_ptrIA_fEC2IfvEEPT_
	.section	.text._ZNSt12__shared_ptrIA_fLN9__gnu_cxx12_Lock_policyE2EE5resetEv,"axG",@progbits,_ZNSt12__shared_ptrIA_fLN9__gnu_cxx12_Lock_policyE2EE5resetEv,comdat
	.align 2
	.weak	_ZNSt12__shared_ptrIA_fLN9__gnu_cxx12_Lock_policyE2EE5resetEv
	.type	_ZNSt12__shared_ptrIA_fLN9__gnu_cxx12_Lock_policyE2EE5resetEv, @function
_ZNSt12__shared_ptrIA_fLN9__gnu_cxx12_Lock_policyE2EE5resetEv:
.LFB3681:
	.loc 4 1641 7
	.cfi_startproc
	endbr64
	push	rbp
	.cfi_def_cfa_offset 16
	.cfi_offset 6, -16
	mov	rbp, rsp
	.cfi_def_cfa_register 6
	sub	rsp, 48
	mov	QWORD PTR -40[rbp], rdi
	.loc 4 1641 7
	mov	rax, QWORD PTR fs:40
	mov	QWORD PTR -8[rbp], rax
	xor	eax, eax
	.loc 4 1642 9
	lea	rax, -32[rbp]
	mov	rdi, rax
	call	_ZNSt12__shared_ptrIA_fLN9__gnu_cxx12_Lock_policyE2EEC1Ev
	.loc 4 1642 28 discriminator 1
	mov	rdx, QWORD PTR -40[rbp]
	lea	rax, -32[rbp]
	mov	rsi, rdx
	mov	rdi, rax
	call	_ZNSt12__shared_ptrIA_fLN9__gnu_cxx12_Lock_policyE2EE4swapERS3_
	.loc 4 1642 9 discriminator 2
	lea	rax, -32[rbp]
	mov	rdi, rax
	call	_ZNSt12__shared_ptrIA_fLN9__gnu_cxx12_Lock_policyE2EED1Ev
	.loc 4 1642 37
	nop
	mov	rax, QWORD PTR -8[rbp]
	sub	rax, QWORD PTR fs:40
	je	.L138
	call	__stack_chk_fail@PLT
.L138:
	leave
	.cfi_def_cfa 7, 8
	ret
	.cfi_endproc
.LFE3681:
	.size	_ZNSt12__shared_ptrIA_fLN9__gnu_cxx12_Lock_policyE2EE5resetEv, .-_ZNSt12__shared_ptrIA_fLN9__gnu_cxx12_Lock_policyE2EE5resetEv
	.section	.text._ZNSt14__shared_countILN9__gnu_cxx12_Lock_policyE2EEaSERKS2_,"axG",@progbits,_ZNSt14__shared_countILN9__gnu_cxx12_Lock_policyE2EEaSERKS2_,comdat
	.align 2
	.weak	_ZNSt14__shared_countILN9__gnu_cxx12_Lock_policyE2EEaSERKS2_
	.type	_ZNSt14__shared_countILN9__gnu_cxx12_Lock_policyE2EEaSERKS2_, @function
_ZNSt14__shared_countILN9__gnu_cxx12_Lock_policyE2EEaSERKS2_:
.LFB3682:
	.loc 4 1082 7
	.cfi_startproc
	endbr64
	push	rbp
	.cfi_def_cfa_offset 16
	.cfi_offset 6, -16
	mov	rbp, rsp
	.cfi_def_cfa_register 6
	sub	rsp, 32
	mov	QWORD PTR -24[rbp], rdi
	mov	QWORD PTR -32[rbp], rsi
	.loc 4 1084 25
	mov	rax, QWORD PTR -32[rbp]
	mov	rax, QWORD PTR [rax]
	mov	QWORD PTR -8[rbp], rax
	.loc 4 1085 15
	mov	rax, QWORD PTR -24[rbp]
	mov	rax, QWORD PTR [rax]
	.loc 4 1085 2
	cmp	QWORD PTR -8[rbp], rax
	je	.L140
	.loc 4 1087 6
	cmp	QWORD PTR -8[rbp], 0
	je	.L141
	.loc 4 1088 30
	mov	rax, QWORD PTR -8[rbp]
	mov	rdi, rax
	call	_ZNSt16_Sp_counted_baseILN9__gnu_cxx12_Lock_policyE2EE15_M_add_ref_copyEv
.L141:
	.loc 4 1089 10
	mov	rax, QWORD PTR -24[rbp]
	mov	rax, QWORD PTR [rax]
	.loc 4 1089 6
	test	rax, rax
	je	.L142
	.loc 4 1090 8
	mov	rax, QWORD PTR -24[rbp]
	mov	rax, QWORD PTR [rax]
	.loc 4 1090 25
	mov	rdi, rax
	call	_ZNSt16_Sp_counted_baseILN9__gnu_cxx12_Lock_policyE2EE10_M_releaseEv
.L142:
	.loc 4 1091 12
	mov	rax, QWORD PTR -24[rbp]
	mov	rdx, QWORD PTR -8[rbp]
	mov	QWORD PTR [rax], rdx
.L140:
	.loc 4 1093 10
	mov	rax, QWORD PTR -24[rbp]
	.loc 4 1094 7
	leave
	.cfi_def_cfa 7, 8
	ret
	.cfi_endproc
.LFE3682:
	.size	_ZNSt14__shared_countILN9__gnu_cxx12_Lock_policyE2EEaSERKS2_, .-_ZNSt14__shared_countILN9__gnu_cxx12_Lock_policyE2EEaSERKS2_
	.section	.text._ZNKSt12__shared_ptrIA_fLN9__gnu_cxx12_Lock_policyE2EE3getEv,"axG",@progbits,_ZNKSt12__shared_ptrIA_fLN9__gnu_cxx12_Lock_policyE2EE3getEv,comdat
	.align 2
	.weak	_ZNKSt12__shared_ptrIA_fLN9__gnu_cxx12_Lock_policyE2EE3getEv
	.type	_ZNKSt12__shared_ptrIA_fLN9__gnu_cxx12_Lock_policyE2EE3getEv, @function
_ZNKSt12__shared_ptrIA_fLN9__gnu_cxx12_Lock_policyE2EE3getEv:
.LFB3683:
	.loc 4 1665 7
	.cfi_startproc
	endbr64
	push	rbp
	.cfi_def_cfa_offset 16
	.cfi_offset 6, -16
	mov	rbp, rsp
	.cfi_def_cfa_register 6
	mov	QWORD PTR -8[rbp], rdi
	.loc 4 1666 16
	mov	rax, QWORD PTR -8[rbp]
	mov	rax, QWORD PTR [rax]
	.loc 4 1666 24
	pop	rbp
	.cfi_def_cfa 7, 8
	ret
	.cfi_endproc
.LFE3683:
	.size	_ZNKSt12__shared_ptrIA_fLN9__gnu_cxx12_Lock_policyE2EE3getEv, .-_ZNKSt12__shared_ptrIA_fLN9__gnu_cxx12_Lock_policyE2EE3getEv
	.section	.text._ZNSt16_Sp_counted_baseILN9__gnu_cxx12_Lock_policyE2EED2Ev,"axG",@progbits,_ZNSt16_Sp_counted_baseILN9__gnu_cxx12_Lock_policyE2EED5Ev,comdat
	.align 2
	.weak	_ZNSt16_Sp_counted_baseILN9__gnu_cxx12_Lock_policyE2EED2Ev
	.type	_ZNSt16_Sp_counted_baseILN9__gnu_cxx12_Lock_policyE2EED2Ev, @function
_ZNSt16_Sp_counted_baseILN9__gnu_cxx12_Lock_policyE2EED2Ev:
.LFB3811:
	.loc 4 133 7
	.cfi_startproc
	endbr64
	push	rbp
	.cfi_def_cfa_offset 16
	.cfi_offset 6, -16
	mov	rbp, rsp
	.cfi_def_cfa_register 6
	mov	QWORD PTR -8[rbp], rdi
.LBB125:
	.loc 4 134 9
	lea	rdx, _ZTVSt16_Sp_counted_baseILN9__gnu_cxx12_Lock_policyE2EE[rip+16]
	mov	rax, QWORD PTR -8[rbp]
	mov	QWORD PTR [rax], rdx
.LBE125:
	nop
	pop	rbp
	.cfi_def_cfa 7, 8
	ret
	.cfi_endproc
.LFE3811:
	.size	_ZNSt16_Sp_counted_baseILN9__gnu_cxx12_Lock_policyE2EED2Ev, .-_ZNSt16_Sp_counted_baseILN9__gnu_cxx12_Lock_policyE2EED2Ev
	.weak	_ZNSt16_Sp_counted_baseILN9__gnu_cxx12_Lock_policyE2EED1Ev
	.set	_ZNSt16_Sp_counted_baseILN9__gnu_cxx12_Lock_policyE2EED1Ev,_ZNSt16_Sp_counted_baseILN9__gnu_cxx12_Lock_policyE2EED2Ev
	.section	.text._ZNSt16_Sp_counted_baseILN9__gnu_cxx12_Lock_policyE2EED0Ev,"axG",@progbits,_ZNSt16_Sp_counted_baseILN9__gnu_cxx12_Lock_policyE2EED5Ev,comdat
	.align 2
	.weak	_ZNSt16_Sp_counted_baseILN9__gnu_cxx12_Lock_policyE2EED0Ev
	.type	_ZNSt16_Sp_counted_baseILN9__gnu_cxx12_Lock_policyE2EED0Ev, @function
_ZNSt16_Sp_counted_baseILN9__gnu_cxx12_Lock_policyE2EED0Ev:
.LFB3813:
	.loc 4 133 7
	.cfi_startproc
	endbr64
	push	rbp
	.cfi_def_cfa_offset 16
	.cfi_offset 6, -16
	mov	rbp, rsp
	.cfi_def_cfa_register 6
	sub	rsp, 16
	mov	QWORD PTR -8[rbp], rdi
	.loc 4 134 9
	mov	rax, QWORD PTR -8[rbp]
	mov	rdi, rax
	call	_ZNSt16_Sp_counted_baseILN9__gnu_cxx12_Lock_policyE2EED1Ev
	.loc 4 134 9 is_stmt 0 discriminator 1
	mov	rax, QWORD PTR -8[rbp]
	mov	esi, 16
	mov	rdi, rax
	call	_ZdlPvm@PLT
	.loc 4 134 9
	leave
	.cfi_def_cfa 7, 8
	ret
	.cfi_endproc
.LFE3813:
	.size	_ZNSt16_Sp_counted_baseILN9__gnu_cxx12_Lock_policyE2EED0Ev, .-_ZNSt16_Sp_counted_baseILN9__gnu_cxx12_Lock_policyE2EED0Ev
	.section	.text._ZNSt16_Sp_counted_baseILN9__gnu_cxx12_Lock_policyE2EE19_M_release_last_useEv,"axG",@progbits,_ZNSt16_Sp_counted_baseILN9__gnu_cxx12_Lock_policyE2EE19_M_release_last_useEv,comdat
	.align 2
	.weak	_ZNSt16_Sp_counted_baseILN9__gnu_cxx12_Lock_policyE2EE19_M_release_last_useEv
	.type	_ZNSt16_Sp_counted_baseILN9__gnu_cxx12_Lock_policyE2EE19_M_release_last_useEv, @function
_ZNSt16_Sp_counted_baseILN9__gnu_cxx12_Lock_policyE2EE19_M_release_last_useEv:
.LFB3814:
	.loc 4 172 7 is_stmt 1
	.cfi_startproc
	endbr64
	push	rbp
	.cfi_def_cfa_offset 16
	.cfi_offset 6, -16
	mov	rbp, rsp
	.cfi_def_cfa_register 6
	sub	rsp, 64
	mov	QWORD PTR -56[rbp], rdi
	.loc 4 175 12
	mov	rax, QWORD PTR -56[rbp]
	mov	rax, QWORD PTR [rax]
	add	rax, 16
	mov	rdx, QWORD PTR [rax]
	mov	rax, QWORD PTR -56[rbp]
	mov	rdi, rax
	call	rdx
.LVL3:
	.loc 4 187 44
	mov	rax, QWORD PTR -56[rbp]
	add	rax, 12
	mov	QWORD PTR -24[rbp], rax
	mov	DWORD PTR -40[rbp], -1
.LBB126:
.LBB127:
.LBB128:
.LBB129:
	.loc 5 52 14
	movzx	eax, BYTE PTR __libc_single_threaded[rip]
	test	al, al
	setne	al
.LBE129:
.LBE128:
	.loc 5 98 5 discriminator 1
	test	al, al
	je	.L150
	mov	rax, QWORD PTR -24[rbp]
	mov	QWORD PTR -16[rbp], rax
	mov	eax, DWORD PTR -40[rbp]
	mov	DWORD PTR -36[rbp], eax
.LBB130:
.LBB131:
	.loc 5 84 18
	mov	rax, QWORD PTR -16[rbp]
	mov	eax, DWORD PTR [rax]
	mov	DWORD PTR -32[rbp], eax
	.loc 5 85 5
	mov	rax, QWORD PTR -16[rbp]
	mov	edx, DWORD PTR [rax]
	.loc 5 85 12
	mov	eax, DWORD PTR -36[rbp]
	add	edx, eax
	mov	rax, QWORD PTR -16[rbp]
	mov	DWORD PTR [rax], edx
	.loc 5 86 12
	mov	eax, DWORD PTR -32[rbp]
.LBE131:
.LBE130:
	.loc 5 99 52
	jmp	.L152
.L150:
	mov	rax, QWORD PTR -24[rbp]
	mov	QWORD PTR -8[rbp], rax
	mov	eax, DWORD PTR -40[rbp]
	mov	DWORD PTR -28[rbp], eax
.LBB132:
.LBB133:
	.loc 5 66 30
	mov	edx, DWORD PTR -28[rbp]
	mov	rax, QWORD PTR -8[rbp]
	lock xadd	DWORD PTR [rax], edx
	.loc 5 66 61 discriminator 1
	mov	eax, edx
.LBE133:
.LBE132:
	.loc 5 101 45
	nop
.L152:
.LBE127:
.LBE126:
	.loc 4 188 14
	cmp	eax, 1
	sete	al
	.loc 4 187 2
	test	al, al
	je	.L155
	.loc 4 191 16
	mov	rax, QWORD PTR -56[rbp]
	mov	rax, QWORD PTR [rax]
	add	rax, 24
	mov	rdx, QWORD PTR [rax]
	mov	rax, QWORD PTR -56[rbp]
	mov	rdi, rax
	call	rdx
.LVL4:
.L155:
	.loc 4 193 7
	nop
	leave
	.cfi_def_cfa 7, 8
	ret
	.cfi_endproc
.LFE3814:
	.size	_ZNSt16_Sp_counted_baseILN9__gnu_cxx12_Lock_policyE2EE19_M_release_last_useEv, .-_ZNSt16_Sp_counted_baseILN9__gnu_cxx12_Lock_policyE2EE19_M_release_last_useEv
	.section	.text._ZNSt12__shared_ptrIA_fLN9__gnu_cxx12_Lock_policyE2EEC2Ev,"axG",@progbits,_ZNSt12__shared_ptrIA_fLN9__gnu_cxx12_Lock_policyE2EEC5Ev,comdat
	.align 2
	.weak	_ZNSt12__shared_ptrIA_fLN9__gnu_cxx12_Lock_policyE2EEC2Ev
	.type	_ZNSt12__shared_ptrIA_fLN9__gnu_cxx12_Lock_policyE2EEC2Ev, @function
_ZNSt12__shared_ptrIA_fLN9__gnu_cxx12_Lock_policyE2EEC2Ev:
.LFB3830:
	.loc 4 1462 17
	.cfi_startproc
	endbr64
	push	rbp
	.cfi_def_cfa_offset 16
	.cfi_offset 6, -16
	mov	rbp, rsp
	.cfi_def_cfa_register 6
	sub	rsp, 16
	mov	QWORD PTR -8[rbp], rdi
.LBB134:
	.loc 4 1463 9
	mov	rax, QWORD PTR -8[rbp]
	mov	QWORD PTR [rax], 0
	.loc 4 1463 20
	mov	rax, QWORD PTR -8[rbp]
	add	rax, 8
	mov	rdi, rax
	call	_ZNSt14__shared_countILN9__gnu_cxx12_Lock_policyE2EEC1Ev
.LBE134:
	.loc 4 1464 9
	nop
	leave
	.cfi_def_cfa 7, 8
	ret
	.cfi_endproc
.LFE3830:
	.size	_ZNSt12__shared_ptrIA_fLN9__gnu_cxx12_Lock_policyE2EEC2Ev, .-_ZNSt12__shared_ptrIA_fLN9__gnu_cxx12_Lock_policyE2EEC2Ev
	.weak	_ZNSt12__shared_ptrIA_fLN9__gnu_cxx12_Lock_policyE2EEC1Ev
	.set	_ZNSt12__shared_ptrIA_fLN9__gnu_cxx12_Lock_policyE2EEC1Ev,_ZNSt12__shared_ptrIA_fLN9__gnu_cxx12_Lock_policyE2EEC2Ev
	.section	.text._ZSt4moveIRSt10shared_ptrIA_fEEONSt16remove_referenceIT_E4typeEOS5_,"axG",@progbits,_ZSt4moveIRSt10shared_ptrIA_fEEONSt16remove_referenceIT_E4typeEOS5_,comdat
	.weak	_ZSt4moveIRSt10shared_ptrIA_fEEONSt16remove_referenceIT_E4typeEOS5_
	.type	_ZSt4moveIRSt10shared_ptrIA_fEEONSt16remove_referenceIT_E4typeEOS5_, @function
_ZSt4moveIRSt10shared_ptrIA_fEEONSt16remove_referenceIT_E4typeEOS5_:
.LFB3832:
	.file 8 "/usr/include/c++/13/bits/move.h"
	.loc 8 97 5
	.cfi_startproc
	endbr64
	push	rbp
	.cfi_def_cfa_offset 16
	.cfi_offset 6, -16
	mov	rbp, rsp
	.cfi_def_cfa_register 6
	mov	QWORD PTR -8[rbp], rdi
	.loc 8 98 74
	mov	rax, QWORD PTR -8[rbp]
	.loc 8 98 77
	pop	rbp
	.cfi_def_cfa 7, 8
	ret
	.cfi_endproc
.LFE3832:
	.size	_ZSt4moveIRSt10shared_ptrIA_fEEONSt16remove_referenceIT_E4typeEOS5_, .-_ZSt4moveIRSt10shared_ptrIA_fEEONSt16remove_referenceIT_E4typeEOS5_
	.section	.text._ZNSt12__shared_ptrIA_fLN9__gnu_cxx12_Lock_policyE2EEaSEOS3_,"axG",@progbits,_ZNSt12__shared_ptrIA_fLN9__gnu_cxx12_Lock_policyE2EEaSEOS3_,comdat
	.align 2
	.weak	_ZNSt12__shared_ptrIA_fLN9__gnu_cxx12_Lock_policyE2EEaSEOS3_
	.type	_ZNSt12__shared_ptrIA_fLN9__gnu_cxx12_Lock_policyE2EEaSEOS3_, @function
_ZNSt12__shared_ptrIA_fLN9__gnu_cxx12_Lock_policyE2EEaSEOS3_:
.LFB3833:
	.loc 4 1618 7
	.cfi_startproc
	endbr64
	push	rbp
	.cfi_def_cfa_offset 16
	.cfi_offset 6, -16
	mov	rbp, rsp
	.cfi_def_cfa_register 6
	sub	rsp, 48
	mov	QWORD PTR -40[rbp], rdi
	mov	QWORD PTR -48[rbp], rsi
	.loc 4 1618 7
	mov	rax, QWORD PTR fs:40
	mov	QWORD PTR -8[rbp], rax
	xor	eax, eax
	.loc 4 1620 24
	mov	rax, QWORD PTR -48[rbp]
	mov	rdi, rax
	call	_ZSt4moveIRSt12__shared_ptrIA_fLN9__gnu_cxx12_Lock_policyE2EEEONSt16remove_referenceIT_E4typeEOS7_
	mov	rdx, rax
	.loc 4 1620 2 discriminator 1
	lea	rax, -32[rbp]
	mov	rsi, rdx
	mov	rdi, rax
	call	_ZNSt12__shared_ptrIA_fLN9__gnu_cxx12_Lock_policyE2EEC1EOS3_
	.loc 4 1620 35 discriminator 2
	mov	rdx, QWORD PTR -40[rbp]
	lea	rax, -32[rbp]
	mov	rsi, rdx
	mov	rdi, rax
	call	_ZNSt12__shared_ptrIA_fLN9__gnu_cxx12_Lock_policyE2EE4swapERS3_
	.loc 4 1620 2 discriminator 3
	lea	rax, -32[rbp]
	mov	rdi, rax
	call	_ZNSt12__shared_ptrIA_fLN9__gnu_cxx12_Lock_policyE2EED1Ev
	.loc 4 1621 10
	mov	rax, QWORD PTR -40[rbp]
	.loc 4 1622 7
	mov	rdx, QWORD PTR -8[rbp]
	sub	rdx, QWORD PTR fs:40
	je	.L161
	call	__stack_chk_fail@PLT
.L161:
	leave
	.cfi_def_cfa 7, 8
	ret
	.cfi_endproc
.LFE3833:
	.size	_ZNSt12__shared_ptrIA_fLN9__gnu_cxx12_Lock_policyE2EEaSEOS3_, .-_ZNSt12__shared_ptrIA_fLN9__gnu_cxx12_Lock_policyE2EEaSEOS3_
	.section	.text._ZNSt12__shared_ptrIA_fLN9__gnu_cxx12_Lock_policyE2EEC2IfvEEPT_,"axG",@progbits,_ZNSt12__shared_ptrIA_fLN9__gnu_cxx12_Lock_policyE2EEC5IfvEEPT_,comdat
	.align 2
	.weak	_ZNSt12__shared_ptrIA_fLN9__gnu_cxx12_Lock_policyE2EEC2IfvEEPT_
	.type	_ZNSt12__shared_ptrIA_fLN9__gnu_cxx12_Lock_policyE2EEC2IfvEEPT_, @function
_ZNSt12__shared_ptrIA_fLN9__gnu_cxx12_Lock_policyE2EEC2IfvEEPT_:
.LFB3835:
	.loc 4 1468 2
	.cfi_startproc
	endbr64
	push	rbp
	.cfi_def_cfa_offset 16
	.cfi_offset 6, -16
	mov	rbp, rsp
	.cfi_def_cfa_register 6
	sub	rsp, 16
	mov	QWORD PTR -8[rbp], rdi
	mov	QWORD PTR -16[rbp], rsi
.LBB135:
	.loc 4 1469 4
	mov	rax, QWORD PTR -8[rbp]
	mov	rdx, QWORD PTR -16[rbp]
	mov	QWORD PTR [rax], rdx
	.loc 4 1469 17
	mov	rax, QWORD PTR -8[rbp]
	lea	rdx, 8[rax]
	mov	rax, QWORD PTR -16[rbp]
	mov	rsi, rax
	mov	rdi, rdx
	call	_ZNSt14__shared_countILN9__gnu_cxx12_Lock_policyE2EEC1IPfEET_St17integral_constantIbLb1EE
	.loc 4 1473 35
	mov	rdx, QWORD PTR -16[rbp]
	mov	rax, QWORD PTR -8[rbp]
	mov	rsi, rdx
	mov	rdi, rax
	call	_ZNSt12__shared_ptrIA_fLN9__gnu_cxx12_Lock_policyE2EE31_M_enable_shared_from_this_withIffEENSt9enable_ifIXntsrNS3_15__has_esft_baseIT0_vEE5valueEvE4typeEPT_
.LBE135:
	.loc 4 1474 2
	nop
	leave
	.cfi_def_cfa 7, 8
	ret
	.cfi_endproc
.LFE3835:
	.size	_ZNSt12__shared_ptrIA_fLN9__gnu_cxx12_Lock_policyE2EEC2IfvEEPT_, .-_ZNSt12__shared_ptrIA_fLN9__gnu_cxx12_Lock_policyE2EEC2IfvEEPT_
	.weak	_ZNSt12__shared_ptrIA_fLN9__gnu_cxx12_Lock_policyE2EEC1IfvEEPT_
	.set	_ZNSt12__shared_ptrIA_fLN9__gnu_cxx12_Lock_policyE2EEC1IfvEEPT_,_ZNSt12__shared_ptrIA_fLN9__gnu_cxx12_Lock_policyE2EEC2IfvEEPT_
	.section	.text._ZNSt12__shared_ptrIA_fLN9__gnu_cxx12_Lock_policyE2EE4swapERS3_,"axG",@progbits,_ZNSt12__shared_ptrIA_fLN9__gnu_cxx12_Lock_policyE2EE4swapERS3_,comdat
	.align 2
	.weak	_ZNSt12__shared_ptrIA_fLN9__gnu_cxx12_Lock_policyE2EE4swapERS3_
	.type	_ZNSt12__shared_ptrIA_fLN9__gnu_cxx12_Lock_policyE2EE4swapERS3_, @function
_ZNSt12__shared_ptrIA_fLN9__gnu_cxx12_Lock_policyE2EE4swapERS3_:
.LFB3837:
	.loc 4 1684 7
	.cfi_startproc
	endbr64
	push	rbp
	.cfi_def_cfa_offset 16
	.cfi_offset 6, -16
	mov	rbp, rsp
	.cfi_def_cfa_register 6
	sub	rsp, 16
	mov	QWORD PTR -8[rbp], rdi
	mov	QWORD PTR -16[rbp], rsi
	.loc 4 1686 28
	mov	rdx, QWORD PTR -16[rbp]
	.loc 4 1686 12
	mov	rax, QWORD PTR -8[rbp]
	.loc 4 1686 11
	mov	rsi, rdx
	mov	rdi, rax
	call	_ZSt4swapIPfENSt9enable_ifIXsrSt6__and_IJSt6__not_ISt15__is_tuple_likeIT_EESt21is_move_constructibleIS5_ESt18is_move_assignableIS5_EEE5valueEvE4typeERS5_SF_
	.loc 4 1687 21
	mov	rax, QWORD PTR -8[rbp]
	add	rax, 8
	.loc 4 1687 30
	mov	rdx, QWORD PTR -16[rbp]
	add	rdx, 8
	.loc 4 1687 21
	mov	rsi, rdx
	mov	rdi, rax
	call	_ZNSt14__shared_countILN9__gnu_cxx12_Lock_policyE2EE7_M_swapERS2_
	.loc 4 1688 7
	nop
	leave
	.cfi_def_cfa 7, 8
	ret
	.cfi_endproc
.LFE3837:
	.size	_ZNSt12__shared_ptrIA_fLN9__gnu_cxx12_Lock_policyE2EE4swapERS3_, .-_ZNSt12__shared_ptrIA_fLN9__gnu_cxx12_Lock_policyE2EE4swapERS3_
	.section	.text._ZNSt16_Sp_counted_baseILN9__gnu_cxx12_Lock_policyE2EE15_M_add_ref_copyEv,"axG",@progbits,_ZNSt16_Sp_counted_baseILN9__gnu_cxx12_Lock_policyE2EE15_M_add_ref_copyEv,comdat
	.align 2
	.weak	_ZNSt16_Sp_counted_baseILN9__gnu_cxx12_Lock_policyE2EE15_M_add_ref_copyEv
	.type	_ZNSt16_Sp_counted_baseILN9__gnu_cxx12_Lock_policyE2EE15_M_add_ref_copyEv, @function
_ZNSt16_Sp_counted_baseILN9__gnu_cxx12_Lock_policyE2EE15_M_add_ref_copyEv:
.LFB3839:
	.loc 4 151 7
	.cfi_startproc
	endbr64
	push	rbp
	.cfi_def_cfa_offset 16
	.cfi_offset 6, -16
	mov	rbp, rsp
	.cfi_def_cfa_register 6
	mov	QWORD PTR -56[rbp], rdi
	.loc 4 152 41
	mov	rax, QWORD PTR -56[rbp]
	add	rax, 8
	mov	QWORD PTR -24[rbp], rax
	mov	DWORD PTR -36[rbp], 1
.LBB136:
.LBB137:
.LBB138:
.LBB139:
	.loc 5 52 14
	movzx	eax, BYTE PTR __libc_single_threaded[rip]
	test	al, al
	setne	al
.LBE139:
.LBE138:
	.loc 5 108 5 discriminator 1
	test	al, al
	je	.L166
	mov	rax, QWORD PTR -24[rbp]
	mov	QWORD PTR -16[rbp], rax
	mov	eax, DWORD PTR -36[rbp]
	mov	DWORD PTR -32[rbp], eax
.LBB140:
.LBB141:
	.loc 5 92 5
	mov	rax, QWORD PTR -16[rbp]
	mov	edx, DWORD PTR [rax]
	.loc 5 92 12
	mov	eax, DWORD PTR -32[rbp]
	add	edx, eax
	mov	rax, QWORD PTR -16[rbp]
	mov	DWORD PTR [rax], edx
	.loc 5 92 22
	jmp	.L167
.L166:
	mov	rax, QWORD PTR -24[rbp]
	mov	QWORD PTR -8[rbp], rax
	mov	eax, DWORD PTR -36[rbp]
	mov	DWORD PTR -28[rbp], eax
.LBE141:
.LBE140:
.LBB142:
.LBB143:
	.loc 5 71 23
	mov	edx, DWORD PTR -28[rbp]
	mov	rax, QWORD PTR -8[rbp]
	lock add	DWORD PTR [rax], edx
	.loc 5 71 57
	nop
.L167:
.LBE143:
.LBE142:
	.loc 5 112 3
	nop
.LBE137:
.LBE136:
	.loc 4 152 61
	nop
	pop	rbp
	.cfi_def_cfa 7, 8
	ret
	.cfi_endproc
.LFE3839:
	.size	_ZNSt16_Sp_counted_baseILN9__gnu_cxx12_Lock_policyE2EE15_M_add_ref_copyEv, .-_ZNSt16_Sp_counted_baseILN9__gnu_cxx12_Lock_policyE2EE15_M_add_ref_copyEv
	.section	.text._ZNSt14__shared_countILN9__gnu_cxx12_Lock_policyE2EEC2Ev,"axG",@progbits,_ZNSt14__shared_countILN9__gnu_cxx12_Lock_policyE2EEC5Ev,comdat
	.align 2
	.weak	_ZNSt14__shared_countILN9__gnu_cxx12_Lock_policyE2EEC2Ev
	.type	_ZNSt14__shared_countILN9__gnu_cxx12_Lock_policyE2EEC2Ev, @function
_ZNSt14__shared_countILN9__gnu_cxx12_Lock_policyE2EEC2Ev:
.LFB3936:
	.loc 4 908 17
	.cfi_startproc
	endbr64
	push	rbp
	.cfi_def_cfa_offset 16
	.cfi_offset 6, -16
	mov	rbp, rsp
	.cfi_def_cfa_register 6
	mov	QWORD PTR -8[rbp], rdi
.LBB144:
	.loc 4 908 45
	mov	rax, QWORD PTR -8[rbp]
	mov	QWORD PTR [rax], 0
.LBE144:
	.loc 4 909 9
	nop
	pop	rbp
	.cfi_def_cfa 7, 8
	ret
	.cfi_endproc
.LFE3936:
	.size	_ZNSt14__shared_countILN9__gnu_cxx12_Lock_policyE2EEC2Ev, .-_ZNSt14__shared_countILN9__gnu_cxx12_Lock_policyE2EEC2Ev
	.weak	_ZNSt14__shared_countILN9__gnu_cxx12_Lock_policyE2EEC1Ev
	.set	_ZNSt14__shared_countILN9__gnu_cxx12_Lock_policyE2EEC1Ev,_ZNSt14__shared_countILN9__gnu_cxx12_Lock_policyE2EEC2Ev
	.section	.text._ZSt4moveIRSt12__shared_ptrIA_fLN9__gnu_cxx12_Lock_policyE2EEEONSt16remove_referenceIT_E4typeEOS7_,"axG",@progbits,_ZSt4moveIRSt12__shared_ptrIA_fLN9__gnu_cxx12_Lock_policyE2EEEONSt16remove_referenceIT_E4typeEOS7_,comdat
	.weak	_ZSt4moveIRSt12__shared_ptrIA_fLN9__gnu_cxx12_Lock_policyE2EEEONSt16remove_referenceIT_E4typeEOS7_
	.type	_ZSt4moveIRSt12__shared_ptrIA_fLN9__gnu_cxx12_Lock_policyE2EEEONSt16remove_referenceIT_E4typeEOS7_, @function
_ZSt4moveIRSt12__shared_ptrIA_fLN9__gnu_cxx12_Lock_policyE2EEEONSt16remove_referenceIT_E4typeEOS7_:
.LFB3938:
	.loc 8 97 5
	.cfi_startproc
	endbr64
	push	rbp
	.cfi_def_cfa_offset 16
	.cfi_offset 6, -16
	mov	rbp, rsp
	.cfi_def_cfa_register 6
	mov	QWORD PTR -8[rbp], rdi
	.loc 8 98 74
	mov	rax, QWORD PTR -8[rbp]
	.loc 8 98 77
	pop	rbp
	.cfi_def_cfa 7, 8
	ret
	.cfi_endproc
.LFE3938:
	.size	_ZSt4moveIRSt12__shared_ptrIA_fLN9__gnu_cxx12_Lock_policyE2EEEONSt16remove_referenceIT_E4typeEOS7_, .-_ZSt4moveIRSt12__shared_ptrIA_fLN9__gnu_cxx12_Lock_policyE2EEEONSt16remove_referenceIT_E4typeEOS7_
	.section	.text._ZNSt12__shared_ptrIA_fLN9__gnu_cxx12_Lock_policyE2EEC2EOS3_,"axG",@progbits,_ZNSt12__shared_ptrIA_fLN9__gnu_cxx12_Lock_policyE2EEC5EOS3_,comdat
	.align 2
	.weak	_ZNSt12__shared_ptrIA_fLN9__gnu_cxx12_Lock_policyE2EEC2EOS3_
	.type	_ZNSt12__shared_ptrIA_fLN9__gnu_cxx12_Lock_policyE2EEC2EOS3_, @function
_ZNSt12__shared_ptrIA_fLN9__gnu_cxx12_Lock_policyE2EEC2EOS3_:
.LFB3940:
	.loc 4 1531 7
	.cfi_startproc
	endbr64
	push	rbp
	.cfi_def_cfa_offset 16
	.cfi_offset 6, -16
	mov	rbp, rsp
	.cfi_def_cfa_register 6
	sub	rsp, 16
	mov	QWORD PTR -8[rbp], rdi
	mov	QWORD PTR -16[rbp], rsi
.LBB145:
	.loc 4 1532 20
	mov	rax, QWORD PTR -16[rbp]
	mov	rdx, QWORD PTR [rax]
	.loc 4 1532 9
	mov	rax, QWORD PTR -8[rbp]
	mov	QWORD PTR [rax], rdx
	.loc 4 1532 29
	mov	rax, QWORD PTR -8[rbp]
	add	rax, 8
	mov	rdi, rax
	call	_ZNSt14__shared_countILN9__gnu_cxx12_Lock_policyE2EEC1Ev
	.loc 4 1534 21
	mov	rax, QWORD PTR -8[rbp]
	add	rax, 8
	.loc 4 1534 26
	mov	rdx, QWORD PTR -16[rbp]
	add	rdx, 8
	.loc 4 1534 21
	mov	rsi, rdx
	mov	rdi, rax
	call	_ZNSt14__shared_countILN9__gnu_cxx12_Lock_policyE2EE7_M_swapERS2_
	.loc 4 1535 13
	mov	rax, QWORD PTR -16[rbp]
	mov	QWORD PTR [rax], 0
.LBE145:
	.loc 4 1536 7
	nop
	leave
	.cfi_def_cfa 7, 8
	ret
	.cfi_endproc
.LFE3940:
	.size	_ZNSt12__shared_ptrIA_fLN9__gnu_cxx12_Lock_policyE2EEC2EOS3_, .-_ZNSt12__shared_ptrIA_fLN9__gnu_cxx12_Lock_policyE2EEC2EOS3_
	.weak	_ZNSt12__shared_ptrIA_fLN9__gnu_cxx12_Lock_policyE2EEC1EOS3_
	.set	_ZNSt12__shared_ptrIA_fLN9__gnu_cxx12_Lock_policyE2EEC1EOS3_,_ZNSt12__shared_ptrIA_fLN9__gnu_cxx12_Lock_policyE2EEC2EOS3_
	.section	.text._ZNSt14__shared_countILN9__gnu_cxx12_Lock_policyE2EEC2IPfEET_St17integral_constantIbLb1EE,"axG",@progbits,_ZNSt14__shared_countILN9__gnu_cxx12_Lock_policyE2EEC5IPfEET_St17integral_constantIbLb1EE,comdat
	.align 2
	.weak	_ZNSt14__shared_countILN9__gnu_cxx12_Lock_policyE2EEC2IPfEET_St17integral_constantIbLb1EE
	.type	_ZNSt14__shared_countILN9__gnu_cxx12_Lock_policyE2EEC2IPfEET_St17integral_constantIbLb1EE, @function
_ZNSt14__shared_countILN9__gnu_cxx12_Lock_policyE2EEC2IPfEET_St17integral_constantIbLb1EE:
.LFB3943:
	.loc 4 932 2
	.cfi_startproc
	endbr64
	push	rbp
	.cfi_def_cfa_offset 16
	.cfi_offset 6, -16
	mov	rbp, rsp
	.cfi_def_cfa_register 6
	sub	rsp, 16
	mov	QWORD PTR -8[rbp], rdi
	mov	QWORD PTR -16[rbp], rsi
.LBB146:
	.loc 4 933 62
	mov	rdx, QWORD PTR -16[rbp]
	mov	rax, QWORD PTR -8[rbp]
	mov	rsi, rdx
	mov	rdi, rax
	call	_ZNSt14__shared_countILN9__gnu_cxx12_Lock_policyE2EEC1IPfSt17__sp_array_deleteSaIvEvEET_T0_T1_
.LBE146:
	.loc 4 934 4
	nop
	leave
	.cfi_def_cfa 7, 8
	ret
	.cfi_endproc
.LFE3943:
	.size	_ZNSt14__shared_countILN9__gnu_cxx12_Lock_policyE2EEC2IPfEET_St17integral_constantIbLb1EE, .-_ZNSt14__shared_countILN9__gnu_cxx12_Lock_policyE2EEC2IPfEET_St17integral_constantIbLb1EE
	.weak	_ZNSt14__shared_countILN9__gnu_cxx12_Lock_policyE2EEC1IPfEET_St17integral_constantIbLb1EE
	.set	_ZNSt14__shared_countILN9__gnu_cxx12_Lock_policyE2EEC1IPfEET_St17integral_constantIbLb1EE,_ZNSt14__shared_countILN9__gnu_cxx12_Lock_policyE2EEC2IPfEET_St17integral_constantIbLb1EE
	.section	.text._ZNSt12__shared_ptrIA_fLN9__gnu_cxx12_Lock_policyE2EE31_M_enable_shared_from_this_withIffEENSt9enable_ifIXntsrNS3_15__has_esft_baseIT0_vEE5valueEvE4typeEPT_,"axG",@progbits,_ZNSt12__shared_ptrIA_fLN9__gnu_cxx12_Lock_policyE2EE31_M_enable_shared_from_this_withIffEENSt9enable_ifIXntsrNS3_15__has_esft_baseIT0_vEE5valueEvE4typeEPT_,comdat
	.align 2
	.weak	_ZNSt12__shared_ptrIA_fLN9__gnu_cxx12_Lock_policyE2EE31_M_enable_shared_from_this_withIffEENSt9enable_ifIXntsrNS3_15__has_esft_baseIT0_vEE5valueEvE4typeEPT_
	.type	_ZNSt12__shared_ptrIA_fLN9__gnu_cxx12_Lock_policyE2EE31_M_enable_shared_from_this_withIffEENSt9enable_ifIXntsrNS3_15__has_esft_baseIT0_vEE5valueEvE4typeEPT_, @function
_ZNSt12__shared_ptrIA_fLN9__gnu_cxx12_Lock_policyE2EE31_M_enable_shared_from_this_withIffEENSt9enable_ifIXntsrNS3_15__has_esft_baseIT0_vEE5valueEvE4typeEPT_:
.LFB3945:
	.loc 4 1765 2
	.cfi_startproc
	endbr64
	push	rbp
	.cfi_def_cfa_offset 16
	.cfi_offset 6, -16
	mov	rbp, rsp
	.cfi_def_cfa_register 6
	mov	QWORD PTR -8[rbp], rdi
	mov	QWORD PTR -16[rbp], rsi
	.loc 4 1766 4
	nop
	pop	rbp
	.cfi_def_cfa 7, 8
	ret
	.cfi_endproc
.LFE3945:
	.size	_ZNSt12__shared_ptrIA_fLN9__gnu_cxx12_Lock_policyE2EE31_M_enable_shared_from_this_withIffEENSt9enable_ifIXntsrNS3_15__has_esft_baseIT0_vEE5valueEvE4typeEPT_, .-_ZNSt12__shared_ptrIA_fLN9__gnu_cxx12_Lock_policyE2EE31_M_enable_shared_from_this_withIffEENSt9enable_ifIXntsrNS3_15__has_esft_baseIT0_vEE5valueEvE4typeEPT_
	.section	.text._ZSt4swapIPfENSt9enable_ifIXsrSt6__and_IJSt6__not_ISt15__is_tuple_likeIT_EESt21is_move_constructibleIS5_ESt18is_move_assignableIS5_EEE5valueEvE4typeERS5_SF_,"axG",@progbits,_ZSt4swapIPfENSt9enable_ifIXsrSt6__and_IJSt6__not_ISt15__is_tuple_likeIT_EESt21is_move_constructibleIS5_ESt18is_move_assignableIS5_EEE5valueEvE4typeERS5_SF_,comdat
	.weak	_ZSt4swapIPfENSt9enable_ifIXsrSt6__and_IJSt6__not_ISt15__is_tuple_likeIT_EESt21is_move_constructibleIS5_ESt18is_move_assignableIS5_EEE5valueEvE4typeERS5_SF_
	.type	_ZSt4swapIPfENSt9enable_ifIXsrSt6__and_IJSt6__not_ISt15__is_tuple_likeIT_EESt21is_move_constructibleIS5_ESt18is_move_assignableIS5_EEE5valueEvE4typeERS5_SF_, @function
_ZSt4swapIPfENSt9enable_ifIXsrSt6__and_IJSt6__not_ISt15__is_tuple_likeIT_EESt21is_move_constructibleIS5_ESt18is_move_assignableIS5_EEE5valueEvE4typeERS5_SF_:
.LFB3946:
	.loc 8 189 5
	.cfi_startproc
	endbr64
	push	rbp
	.cfi_def_cfa_offset 16
	.cfi_offset 6, -16
	mov	rbp, rsp
	.cfi_def_cfa_register 6
	sub	rsp, 32
	mov	QWORD PTR -24[rbp], rdi
	mov	QWORD PTR -32[rbp], rsi
	.loc 8 189 5
	mov	rax, QWORD PTR fs:40
	mov	QWORD PTR -8[rbp], rax
	xor	eax, eax
	.loc 8 197 19
	mov	rax, QWORD PTR -24[rbp]
	mov	rdi, rax
	call	_ZSt4moveIRPfEONSt16remove_referenceIT_E4typeEOS3_
	.loc 8 197 11 discriminator 1
	mov	rax, QWORD PTR [rax]
	mov	QWORD PTR -16[rbp], rax
	.loc 8 198 13
	mov	rax, QWORD PTR -32[rbp]
	mov	rdi, rax
	call	_ZSt4moveIRPfEONSt16remove_referenceIT_E4typeEOS3_
	.loc 8 198 11 discriminator 1
	mov	rdx, QWORD PTR [rax]
	mov	rax, QWORD PTR -24[rbp]
	mov	QWORD PTR [rax], rdx
	.loc 8 199 13
	lea	rax, -16[rbp]
	mov	rdi, rax
	call	_ZSt4moveIRPfEONSt16remove_referenceIT_E4typeEOS3_
	.loc 8 199 11 discriminator 1
	mov	rdx, QWORD PTR [rax]
	mov	rax, QWORD PTR -32[rbp]
	mov	QWORD PTR [rax], rdx
	.loc 8 200 5
	nop
	mov	rax, QWORD PTR -8[rbp]
	sub	rax, QWORD PTR fs:40
	je	.L175
	call	__stack_chk_fail@PLT
.L175:
	leave
	.cfi_def_cfa 7, 8
	ret
	.cfi_endproc
.LFE3946:
	.size	_ZSt4swapIPfENSt9enable_ifIXsrSt6__and_IJSt6__not_ISt15__is_tuple_likeIT_EESt21is_move_constructibleIS5_ESt18is_move_assignableIS5_EEE5valueEvE4typeERS5_SF_, .-_ZSt4swapIPfENSt9enable_ifIXsrSt6__and_IJSt6__not_ISt15__is_tuple_likeIT_EESt21is_move_constructibleIS5_ESt18is_move_assignableIS5_EEE5valueEvE4typeERS5_SF_
	.section	.text._ZNSt14__shared_countILN9__gnu_cxx12_Lock_policyE2EE7_M_swapERS2_,"axG",@progbits,_ZNSt14__shared_countILN9__gnu_cxx12_Lock_policyE2EE7_M_swapERS2_,comdat
	.align 2
	.weak	_ZNSt14__shared_countILN9__gnu_cxx12_Lock_policyE2EE7_M_swapERS2_
	.type	_ZNSt14__shared_countILN9__gnu_cxx12_Lock_policyE2EE7_M_swapERS2_, @function
_ZNSt14__shared_countILN9__gnu_cxx12_Lock_policyE2EE7_M_swapERS2_:
.LFB3947:
	.loc 4 1097 7
	.cfi_startproc
	endbr64
	push	rbp
	.cfi_def_cfa_offset 16
	.cfi_offset 6, -16
	mov	rbp, rsp
	.cfi_def_cfa_register 6
	mov	QWORD PTR -24[rbp], rdi
	mov	QWORD PTR -32[rbp], rsi
	.loc 4 1099 25
	mov	rax, QWORD PTR -32[rbp]
	mov	rax, QWORD PTR [rax]
	mov	QWORD PTR -8[rbp], rax
	.loc 4 1100 14
	mov	rax, QWORD PTR -24[rbp]
	mov	rdx, QWORD PTR [rax]
	.loc 4 1100 12
	mov	rax, QWORD PTR -32[rbp]
	mov	QWORD PTR [rax], rdx
	.loc 4 1101 8
	mov	rax, QWORD PTR -24[rbp]
	mov	rdx, QWORD PTR -8[rbp]
	mov	QWORD PTR [rax], rdx
	.loc 4 1102 7
	nop
	pop	rbp
	.cfi_def_cfa 7, 8
	ret
	.cfi_endproc
.LFE3947:
	.size	_ZNSt14__shared_countILN9__gnu_cxx12_Lock_policyE2EE7_M_swapERS2_, .-_ZNSt14__shared_countILN9__gnu_cxx12_Lock_policyE2EE7_M_swapERS2_
	.section	.text._ZNSt14__shared_countILN9__gnu_cxx12_Lock_policyE2EEC2IPfSt17__sp_array_deleteSaIvEvEET_T0_T1_,"axG",@progbits,_ZNSt14__shared_countILN9__gnu_cxx12_Lock_policyE2EEC5IPfSt17__sp_array_deleteSaIvEvEET_T0_T1_,comdat
	.align 2
	.weak	_ZNSt14__shared_countILN9__gnu_cxx12_Lock_policyE2EEC2IPfSt17__sp_array_deleteSaIvEvEET_T0_T1_
	.type	_ZNSt14__shared_countILN9__gnu_cxx12_Lock_policyE2EEC2IPfSt17__sp_array_deleteSaIvEvEET_T0_T1_, @function
_ZNSt14__shared_countILN9__gnu_cxx12_Lock_policyE2EEC2IPfSt17__sp_array_deleteSaIvEvEET_T0_T1_:
.LFB4030:
	.loc 4 944 2
	.cfi_startproc
	.cfi_personality 0x9b,DW.ref.__gxx_personality_v0
	.cfi_lsda 0x1b,.LLSDA4030
	endbr64
	push	rbp
	.cfi_def_cfa_offset 16
	.cfi_offset 6, -16
	mov	rbp, rsp
	.cfi_def_cfa_register 6
	push	r12
	push	rbx
	sub	rsp, 80
	.cfi_offset 12, -24
	.cfi_offset 3, -32
	mov	QWORD PTR -72[rbp], rdi
	mov	QWORD PTR -80[rbp], rsi
	.loc 4 944 2
	mov	rax, QWORD PTR fs:40
	mov	QWORD PTR -24[rbp], rax
	xor	eax, eax
.LBB147:
	.loc 4 944 55
	mov	rax, QWORD PTR -72[rbp]
	mov	QWORD PTR [rax], 0
.LBB148:
.LBB149:
	.loc 4 950 13
	lea	rax, -48[rbp]
	lea	rdx, -57[rbp]
	mov	rsi, rdx
	mov	rdi, rax
.LEHB14:
	call	_ZSt18__allocate_guardedISaISt19_Sp_counted_deleterIPfSt17__sp_array_deleteSaIvELN9__gnu_cxx12_Lock_policyE2EEEESt15__allocated_ptrIT_ERS9_
.LEHE14:
	.loc 4 951 40
	lea	rax, -48[rbp]
	mov	rdi, rax
	call	_ZNSt15__allocated_ptrISaISt19_Sp_counted_deleterIPfSt17__sp_array_deleteSaIvELN9__gnu_cxx12_Lock_policyE2EEEE3getEv
	mov	QWORD PTR -56[rbp], rax
	.loc 4 952 8
	mov	rax, QWORD PTR -56[rbp]
	mov	rsi, rax
	mov	edi, 24
	call	_ZnwmPv
	mov	rbx, rax
	.loc 4 952 64 discriminator 1
	lea	rax, -82[rbp]
	mov	rdi, rax
	call	_ZSt4moveIRSaIvEEONSt16remove_referenceIT_E4typeEOS3_
	mov	r12, rax
	.loc 4 952 48 discriminator 2
	lea	rax, -81[rbp]
	mov	rdi, rax
	call	_ZSt4moveIRSt17__sp_array_deleteEONSt16remove_referenceIT_E4typeEOS3_
	.loc 4 952 8 discriminator 3
	mov	rax, QWORD PTR -80[rbp]
	mov	rdx, r12
	mov	rsi, rax
	mov	rdi, rbx
	call	_ZNSt19_Sp_counted_deleterIPfSt17__sp_array_deleteSaIvELN9__gnu_cxx12_Lock_policyE2EEC1ES0_S1_RKS2_
	.loc 4 953 14
	mov	rax, QWORD PTR -72[rbp]
	mov	rdx, QWORD PTR -56[rbp]
	mov	QWORD PTR [rax], rdx
	.loc 4 954 16
	lea	rax, -48[rbp]
	mov	esi, 0
	mov	rdi, rax
	call	_ZNSt15__allocated_ptrISaISt19_Sp_counted_deleterIPfSt17__sp_array_deleteSaIvELN9__gnu_cxx12_Lock_policyE2EEEEaSEDn
	.loc 4 955 6
	lea	rax, -48[rbp]
	mov	rdi, rax
	call	_ZNSt15__allocated_ptrISaISt19_Sp_counted_deleterIPfSt17__sp_array_deleteSaIvELN9__gnu_cxx12_Lock_policyE2EEEED1Ev
.LBB150:
.LBB151:
	.file 9 "/usr/include/c++/13/bits/allocator.h"
	.loc 9 184 39
	nop
.LBE151:
.LBE150:
.LBE149:
.LBE148:
.LBE147:
	.loc 4 961 2
	nop
	mov	rax, QWORD PTR -24[rbp]
	sub	rax, QWORD PTR fs:40
	je	.L182
	jmp	.L185
.L183:
	endbr64
.LBB153:
.LBB152:
	.loc 4 956 4 discriminator 1
	mov	rdi, rax
	call	__cxa_begin_catch@PLT
	.loc 4 958 11
	mov	rdx, QWORD PTR -80[rbp]
	lea	rax, -81[rbp]
	mov	rsi, rdx
	mov	rdi, rax
	call	_ZNKSt17__sp_array_deleteclIfEEvPT_
	.loc 4 959 8
	mov	rax, QWORD PTR -24[rbp]
	sub	rax, QWORD PTR fs:40
	je	.L179
	call	__stack_chk_fail@PLT
.L179:
.LEHB15:
	call	__cxa_rethrow@PLT
.LEHE15:
.L184:
	endbr64
	.loc 4 956 4
	mov	rbx, rax
	call	__cxa_end_catch@PLT
	mov	rax, rbx
	mov	rdx, QWORD PTR -24[rbp]
	sub	rdx, QWORD PTR fs:40
	je	.L181
	call	__stack_chk_fail@PLT
.L181:
	mov	rdi, rax
.LEHB16:
	call	_Unwind_Resume@PLT
.LEHE16:
.L185:
.LBE152:
.LBE153:
	.loc 4 961 2
	call	__stack_chk_fail@PLT
.L182:
	add	rsp, 80
	pop	rbx
	pop	r12
	pop	rbp
	.cfi_def_cfa 7, 8
	ret
	.cfi_endproc
.LFE4030:
	.section	.gcc_except_table
	.align 4
.LLSDA4030:
	.byte	0xff
	.byte	0x9b
	.uleb128 .LLSDATT4030-.LLSDATTD4030
.LLSDATTD4030:
	.byte	0x1
	.uleb128 .LLSDACSE4030-.LLSDACSB4030
.LLSDACSB4030:
	.uleb128 .LEHB14-.LFB4030
	.uleb128 .LEHE14-.LEHB14
	.uleb128 .L183-.LFB4030
	.uleb128 0x1
	.uleb128 .LEHB15-.LFB4030
	.uleb128 .LEHE15-.LEHB15
	.uleb128 .L184-.LFB4030
	.uleb128 0
	.uleb128 .LEHB16-.LFB4030
	.uleb128 .LEHE16-.LEHB16
	.uleb128 0
	.uleb128 0
.LLSDACSE4030:
	.byte	0x1
	.byte	0
	.align 4
	.long	0

.LLSDATT4030:
	.section	.text._ZNSt14__shared_countILN9__gnu_cxx12_Lock_policyE2EEC2IPfSt17__sp_array_deleteSaIvEvEET_T0_T1_,"axG",@progbits,_ZNSt14__shared_countILN9__gnu_cxx12_Lock_policyE2EEC5IPfSt17__sp_array_deleteSaIvEvEET_T0_T1_,comdat
	.size	_ZNSt14__shared_countILN9__gnu_cxx12_Lock_policyE2EEC2IPfSt17__sp_array_deleteSaIvEvEET_T0_T1_, .-_ZNSt14__shared_countILN9__gnu_cxx12_Lock_policyE2EEC2IPfSt17__sp_array_deleteSaIvEvEET_T0_T1_
	.weak	_ZNSt14__shared_countILN9__gnu_cxx12_Lock_policyE2EEC1IPfSt17__sp_array_deleteSaIvEvEET_T0_T1_
	.set	_ZNSt14__shared_countILN9__gnu_cxx12_Lock_policyE2EEC1IPfSt17__sp_array_deleteSaIvEvEET_T0_T1_,_ZNSt14__shared_countILN9__gnu_cxx12_Lock_policyE2EEC2IPfSt17__sp_array_deleteSaIvEvEET_T0_T1_
	.section	.text._ZSt4moveIRPfEONSt16remove_referenceIT_E4typeEOS3_,"axG",@progbits,_ZSt4moveIRPfEONSt16remove_referenceIT_E4typeEOS3_,comdat
	.weak	_ZSt4moveIRPfEONSt16remove_referenceIT_E4typeEOS3_
	.type	_ZSt4moveIRPfEONSt16remove_referenceIT_E4typeEOS3_, @function
_ZSt4moveIRPfEONSt16remove_referenceIT_E4typeEOS3_:
.LFB4032:
	.loc 8 97 5
	.cfi_startproc
	endbr64
	push	rbp
	.cfi_def_cfa_offset 16
	.cfi_offset 6, -16
	mov	rbp, rsp
	.cfi_def_cfa_register 6
	mov	QWORD PTR -8[rbp], rdi
	.loc 8 98 74
	mov	rax, QWORD PTR -8[rbp]
	.loc 8 98 77
	pop	rbp
	.cfi_def_cfa 7, 8
	ret
	.cfi_endproc
.LFE4032:
	.size	_ZSt4moveIRPfEONSt16remove_referenceIT_E4typeEOS3_, .-_ZSt4moveIRPfEONSt16remove_referenceIT_E4typeEOS3_
	.section	.text._ZSt18__allocate_guardedISaISt19_Sp_counted_deleterIPfSt17__sp_array_deleteSaIvELN9__gnu_cxx12_Lock_policyE2EEEESt15__allocated_ptrIT_ERS9_,"axG",@progbits,_ZSt18__allocate_guardedISaISt19_Sp_counted_deleterIPfSt17__sp_array_deleteSaIvELN9__gnu_cxx12_Lock_policyE2EEEESt15__allocated_ptrIT_ERS9_,comdat
	.weak	_ZSt18__allocate_guardedISaISt19_Sp_counted_deleterIPfSt17__sp_array_deleteSaIvELN9__gnu_cxx12_Lock_policyE2EEEESt15__allocated_ptrIT_ERS9_
	.type	_ZSt18__allocate_guardedISaISt19_Sp_counted_deleterIPfSt17__sp_array_deleteSaIvELN9__gnu_cxx12_Lock_policyE2EEEESt15__allocated_ptrIT_ERS9_, @function
_ZSt18__allocate_guardedISaISt19_Sp_counted_deleterIPfSt17__sp_array_deleteSaIvELN9__gnu_cxx12_Lock_policyE2EEEESt15__allocated_ptrIT_ERS9_:
.LFB4074:
	.file 10 "/usr/include/c++/13/bits/allocated_ptr.h"
	.loc 10 96 5
	.cfi_startproc
	endbr64
	push	rbp
	.cfi_def_cfa_offset 16
	.cfi_offset 6, -16
	mov	rbp, rsp
	.cfi_def_cfa_register 6
	sub	rsp, 64
	mov	QWORD PTR -56[rbp], rdi
	mov	QWORD PTR -64[rbp], rsi
	.loc 10 96 5
	mov	rax, QWORD PTR fs:40
	mov	QWORD PTR -8[rbp], rax
	xor	eax, eax
	mov	rax, QWORD PTR -64[rbp]
	mov	QWORD PTR -32[rbp], rax
	mov	QWORD PTR -24[rbp], 1
	mov	rax, QWORD PTR -32[rbp]
	mov	QWORD PTR -16[rbp], rax
	mov	rax, QWORD PTR -24[rbp]
	mov	QWORD PTR -40[rbp], rax
.LBB154:
.LBB155:
.LBB156:
.LBB157:
	.loc 9 191 34
	call	_ZSt23__is_constant_evaluatedv
	.loc 9 191 2 discriminator 1
	test	al, al
	je	.L189
	.loc 9 193 32
	mov	rax, QWORD PTR -40[rbp]
	mov	ecx, 0
	mov	edx, 24
	mul	rdx
	jno	.L190
	mov	ecx, 1
.L190:
	.loc 9 193 32 is_stmt 0 discriminator 1
	mov	QWORD PTR -40[rbp], rax
	mov	rax, rcx
	and	eax, 1
	.loc 9 193 6 is_stmt 1 discriminator 1
	test	al, al
	je	.L192
	.loc 9 194 41
	mov	rax, QWORD PTR -8[rbp]
	sub	rax, QWORD PTR fs:40
	je	.L193
	call	__stack_chk_fail@PLT
.L193:
	call	_ZSt28__throw_bad_array_new_lengthv@PLT
.L192:
	.loc 9 195 45
	mov	rax, QWORD PTR -40[rbp]
	mov	rdi, rax
	call	_Znwm@PLT
	mov	rdx, rax
	.loc 9 195 50
	jmp	.L194
.L189:
	.loc 9 198 40
	mov	rcx, QWORD PTR -40[rbp]
	mov	rax, QWORD PTR -16[rbp]
	mov	edx, 0
	mov	rsi, rcx
	mov	rdi, rax
	call	_ZNSt15__new_allocatorISt19_Sp_counted_deleterIPfSt17__sp_array_deleteSaIvELN9__gnu_cxx12_Lock_policyE2EEE8allocateEmPKv
	mov	rdx, rax
	.loc 9 198 47
	nop
.L194:
.LBE157:
.LBE156:
	.file 11 "/usr/include/c++/13/bits/alloc_traits.h"
	.loc 11 482 32
	nop
.LBE155:
.LBE154:
	.loc 10 98 69 discriminator 1
	mov	rcx, QWORD PTR -64[rbp]
	mov	rax, QWORD PTR -56[rbp]
	mov	rsi, rcx
	mov	rdi, rax
	call	_ZNSt15__allocated_ptrISaISt19_Sp_counted_deleterIPfSt17__sp_array_deleteSaIvELN9__gnu_cxx12_Lock_policyE2EEEEC1ERS7_PS6_
	.loc 10 99 5
	mov	rax, QWORD PTR -8[rbp]
	sub	rax, QWORD PTR fs:40
	je	.L197
	call	__stack_chk_fail@PLT
.L197:
	mov	rax, QWORD PTR -56[rbp]
	leave
	.cfi_def_cfa 7, 8
	ret
	.cfi_endproc
.LFE4074:
	.size	_ZSt18__allocate_guardedISaISt19_Sp_counted_deleterIPfSt17__sp_array_deleteSaIvELN9__gnu_cxx12_Lock_policyE2EEEESt15__allocated_ptrIT_ERS9_, .-_ZSt18__allocate_guardedISaISt19_Sp_counted_deleterIPfSt17__sp_array_deleteSaIvELN9__gnu_cxx12_Lock_policyE2EEEESt15__allocated_ptrIT_ERS9_
	.section	.text._ZNSt15__allocated_ptrISaISt19_Sp_counted_deleterIPfSt17__sp_array_deleteSaIvELN9__gnu_cxx12_Lock_policyE2EEEED2Ev,"axG",@progbits,_ZNSt15__allocated_ptrISaISt19_Sp_counted_deleterIPfSt17__sp_array_deleteSaIvELN9__gnu_cxx12_Lock_policyE2EEEED5Ev,comdat
	.align 2
	.weak	_ZNSt15__allocated_ptrISaISt19_Sp_counted_deleterIPfSt17__sp_array_deleteSaIvELN9__gnu_cxx12_Lock_policyE2EEEED2Ev
	.type	_ZNSt15__allocated_ptrISaISt19_Sp_counted_deleterIPfSt17__sp_array_deleteSaIvELN9__gnu_cxx12_Lock_policyE2EEEED2Ev, @function
_ZNSt15__allocated_ptrISaISt19_Sp_counted_deleterIPfSt17__sp_array_deleteSaIvELN9__gnu_cxx12_Lock_policyE2EEEED2Ev:
.LFB4076:
	.loc 10 71 7
	.cfi_startproc
	endbr64
	push	rbp
	.cfi_def_cfa_offset 16
	.cfi_offset 6, -16
	mov	rbp, rsp
	.cfi_def_cfa_register 6
	sub	rsp, 64
	mov	QWORD PTR -56[rbp], rdi
.LBB158:
	.loc 10 73 6
	mov	rax, QWORD PTR -56[rbp]
	mov	rax, QWORD PTR 8[rax]
	.loc 10 73 2
	test	rax, rax
	je	.L202
	.loc 10 74 45
	mov	rax, QWORD PTR -56[rbp]
	mov	rax, QWORD PTR 8[rax]
	.loc 10 74 47
	mov	rdx, QWORD PTR -56[rbp]
	mov	rdx, QWORD PTR [rdx]
	mov	QWORD PTR -48[rbp], rdx
	mov	QWORD PTR -40[rbp], rax
	mov	QWORD PTR -32[rbp], 1
	mov	rax, QWORD PTR -48[rbp]
	mov	QWORD PTR -24[rbp], rax
	mov	rax, QWORD PTR -40[rbp]
	mov	QWORD PTR -16[rbp], rax
	mov	rax, QWORD PTR -32[rbp]
	mov	QWORD PTR -8[rbp], rax
.LBB159:
.LBB160:
.LBB161:
.LBB162:
	.loc 9 205 34
	call	_ZSt23__is_constant_evaluatedv
	.loc 9 205 2 discriminator 1
	test	al, al
	je	.L200
	.loc 9 207 23
	mov	rax, QWORD PTR -16[rbp]
	mov	rdi, rax
	call	_ZdlPv@PLT
	.loc 9 208 6
	jmp	.L201
.L200:
	.loc 9 210 35
	mov	rdx, QWORD PTR -8[rbp]
	mov	rcx, QWORD PTR -16[rbp]
	mov	rax, QWORD PTR -24[rbp]
	mov	rsi, rcx
	mov	rdi, rax
	call	_ZNSt15__new_allocatorISt19_Sp_counted_deleterIPfSt17__sp_array_deleteSaIvELN9__gnu_cxx12_Lock_policyE2EEE10deallocateEPS6_m
.L201:
.LBE162:
.LBE161:
	.loc 11 517 35
	nop
.L202:
.LBE160:
.LBE159:
.LBE158:
	.loc 10 75 7
	nop
	leave
	.cfi_def_cfa 7, 8
	ret
	.cfi_endproc
.LFE4076:
	.size	_ZNSt15__allocated_ptrISaISt19_Sp_counted_deleterIPfSt17__sp_array_deleteSaIvELN9__gnu_cxx12_Lock_policyE2EEEED2Ev, .-_ZNSt15__allocated_ptrISaISt19_Sp_counted_deleterIPfSt17__sp_array_deleteSaIvELN9__gnu_cxx12_Lock_policyE2EEEED2Ev
	.weak	_ZNSt15__allocated_ptrISaISt19_Sp_counted_deleterIPfSt17__sp_array_deleteSaIvELN9__gnu_cxx12_Lock_policyE2EEEED1Ev
	.set	_ZNSt15__allocated_ptrISaISt19_Sp_counted_deleterIPfSt17__sp_array_deleteSaIvELN9__gnu_cxx12_Lock_policyE2EEEED1Ev,_ZNSt15__allocated_ptrISaISt19_Sp_counted_deleterIPfSt17__sp_array_deleteSaIvELN9__gnu_cxx12_Lock_policyE2EEEED2Ev
	.section	.text._ZNSt15__allocated_ptrISaISt19_Sp_counted_deleterIPfSt17__sp_array_deleteSaIvELN9__gnu_cxx12_Lock_policyE2EEEE3getEv,"axG",@progbits,_ZNSt15__allocated_ptrISaISt19_Sp_counted_deleterIPfSt17__sp_array_deleteSaIvELN9__gnu_cxx12_Lock_policyE2EEEE3getEv,comdat
	.align 2
	.weak	_ZNSt15__allocated_ptrISaISt19_Sp_counted_deleterIPfSt17__sp_array_deleteSaIvELN9__gnu_cxx12_Lock_policyE2EEEE3getEv
	.type	_ZNSt15__allocated_ptrISaISt19_Sp_counted_deleterIPfSt17__sp_array_deleteSaIvELN9__gnu_cxx12_Lock_policyE2EEEE3getEv, @function
_ZNSt15__allocated_ptrISaISt19_Sp_counted_deleterIPfSt17__sp_array_deleteSaIvELN9__gnu_cxx12_Lock_policyE2EEEE3getEv:
.LFB4078:
	.loc 10 86 19
	.cfi_startproc
	endbr64
	push	rbp
	.cfi_def_cfa_offset 16
	.cfi_offset 6, -16
	mov	rbp, rsp
	.cfi_def_cfa_register 6
	sub	rsp, 16
	mov	QWORD PTR -8[rbp], rdi
	.loc 10 86 51
	mov	rax, QWORD PTR -8[rbp]
	mov	rax, QWORD PTR 8[rax]
	mov	rdi, rax
	call	_ZSt12__to_addressISt19_Sp_counted_deleterIPfSt17__sp_array_deleteSaIvELN9__gnu_cxx12_Lock_policyE2EEEPT_S8_
	.loc 10 86 61
	leave
	.cfi_def_cfa 7, 8
	ret
	.cfi_endproc
.LFE4078:
	.size	_ZNSt15__allocated_ptrISaISt19_Sp_counted_deleterIPfSt17__sp_array_deleteSaIvELN9__gnu_cxx12_Lock_policyE2EEEE3getEv, .-_ZNSt15__allocated_ptrISaISt19_Sp_counted_deleterIPfSt17__sp_array_deleteSaIvELN9__gnu_cxx12_Lock_policyE2EEEE3getEv
	.section	.text._ZSt4moveIRSt17__sp_array_deleteEONSt16remove_referenceIT_E4typeEOS3_,"axG",@progbits,_ZSt4moveIRSt17__sp_array_deleteEONSt16remove_referenceIT_E4typeEOS3_,comdat
	.weak	_ZSt4moveIRSt17__sp_array_deleteEONSt16remove_referenceIT_E4typeEOS3_
	.type	_ZSt4moveIRSt17__sp_array_deleteEONSt16remove_referenceIT_E4typeEOS3_, @function
_ZSt4moveIRSt17__sp_array_deleteEONSt16remove_referenceIT_E4typeEOS3_:
.LFB4079:
	.loc 8 97 5
	.cfi_startproc
	endbr64
	push	rbp
	.cfi_def_cfa_offset 16
	.cfi_offset 6, -16
	mov	rbp, rsp
	.cfi_def_cfa_register 6
	mov	QWORD PTR -8[rbp], rdi
	.loc 8 98 74
	mov	rax, QWORD PTR -8[rbp]
	.loc 8 98 77
	pop	rbp
	.cfi_def_cfa 7, 8
	ret
	.cfi_endproc
.LFE4079:
	.size	_ZSt4moveIRSt17__sp_array_deleteEONSt16remove_referenceIT_E4typeEOS3_, .-_ZSt4moveIRSt17__sp_array_deleteEONSt16remove_referenceIT_E4typeEOS3_
	.section	.text._ZSt4moveIRSaIvEEONSt16remove_referenceIT_E4typeEOS3_,"axG",@progbits,_ZSt4moveIRSaIvEEONSt16remove_referenceIT_E4typeEOS3_,comdat
	.weak	_ZSt4moveIRSaIvEEONSt16remove_referenceIT_E4typeEOS3_
	.type	_ZSt4moveIRSaIvEEONSt16remove_referenceIT_E4typeEOS3_, @function
_ZSt4moveIRSaIvEEONSt16remove_referenceIT_E4typeEOS3_:
.LFB4080:
	.loc 8 97 5
	.cfi_startproc
	endbr64
	push	rbp
	.cfi_def_cfa_offset 16
	.cfi_offset 6, -16
	mov	rbp, rsp
	.cfi_def_cfa_register 6
	mov	QWORD PTR -8[rbp], rdi
	.loc 8 98 74
	mov	rax, QWORD PTR -8[rbp]
	.loc 8 98 77
	pop	rbp
	.cfi_def_cfa 7, 8
	ret
	.cfi_endproc
.LFE4080:
	.size	_ZSt4moveIRSaIvEEONSt16remove_referenceIT_E4typeEOS3_, .-_ZSt4moveIRSaIvEEONSt16remove_referenceIT_E4typeEOS3_
	.section	.text._ZNSt19_Sp_counted_deleterIPfSt17__sp_array_deleteSaIvELN9__gnu_cxx12_Lock_policyE2EEC2ES0_S1_RKS2_,"axG",@progbits,_ZNSt19_Sp_counted_deleterIPfSt17__sp_array_deleteSaIvELN9__gnu_cxx12_Lock_policyE2EEC5ES0_S1_RKS2_,comdat
	.align 2
	.weak	_ZNSt19_Sp_counted_deleterIPfSt17__sp_array_deleteSaIvELN9__gnu_cxx12_Lock_policyE2EEC2ES0_S1_RKS2_
	.type	_ZNSt19_Sp_counted_deleterIPfSt17__sp_array_deleteSaIvELN9__gnu_cxx12_Lock_policyE2EEC2ES0_S1_RKS2_, @function
_ZNSt19_Sp_counted_deleterIPfSt17__sp_array_deleteSaIvELN9__gnu_cxx12_Lock_policyE2EEC2ES0_S1_RKS2_:
.LFB4082:
	.loc 4 520 7
	.cfi_startproc
	endbr64
	push	rbp
	.cfi_def_cfa_offset 16
	.cfi_offset 6, -16
	mov	rbp, rsp
	.cfi_def_cfa_register 6
	push	rbx
	sub	rsp, 40
	.cfi_offset 3, -24
	mov	QWORD PTR -24[rbp], rdi
	mov	QWORD PTR -32[rbp], rsi
	mov	QWORD PTR -48[rbp], rdx
.LBB163:
	.loc 4 521 41
	mov	rax, QWORD PTR -24[rbp]
	mov	rdi, rax
	call	_ZNSt16_Sp_counted_baseILN9__gnu_cxx12_Lock_policyE2EEC2Ev
	.loc 4 521 41 is_stmt 0 discriminator 1
	lea	rdx, _ZTVSt19_Sp_counted_deleterIPfSt17__sp_array_deleteSaIvELN9__gnu_cxx12_Lock_policyE2EE[rip+16]
	mov	rax, QWORD PTR -24[rbp]
	mov	QWORD PTR [rax], rdx
	.loc 4 521 9 is_stmt 1 discriminator 1
	mov	rax, QWORD PTR -24[rbp]
	lea	rbx, 16[rax]
	.loc 4 521 31 discriminator 1
	lea	rax, -33[rbp]
	mov	rdi, rax
	call	_ZSt4moveIRSt17__sp_array_deleteEONSt16remove_referenceIT_E4typeEOS3_
	.loc 4 521 9 discriminator 2
	mov	rdx, QWORD PTR -48[rbp]
	mov	rax, QWORD PTR -32[rbp]
	mov	rsi, rax
	mov	rdi, rbx
	call	_ZNSt19_Sp_counted_deleterIPfSt17__sp_array_deleteSaIvELN9__gnu_cxx12_Lock_policyE2EE5_ImplC1ES0_S1_RKS2_
.LBE163:
	.loc 4 521 45
	nop
	mov	rbx, QWORD PTR -8[rbp]
	leave
	.cfi_def_cfa 7, 8
	ret
	.cfi_endproc
.LFE4082:
	.size	_ZNSt19_Sp_counted_deleterIPfSt17__sp_array_deleteSaIvELN9__gnu_cxx12_Lock_policyE2EEC2ES0_S1_RKS2_, .-_ZNSt19_Sp_counted_deleterIPfSt17__sp_array_deleteSaIvELN9__gnu_cxx12_Lock_policyE2EEC2ES0_S1_RKS2_
	.weak	_ZNSt19_Sp_counted_deleterIPfSt17__sp_array_deleteSaIvELN9__gnu_cxx12_Lock_policyE2EEC1ES0_S1_RKS2_
	.set	_ZNSt19_Sp_counted_deleterIPfSt17__sp_array_deleteSaIvELN9__gnu_cxx12_Lock_policyE2EEC1ES0_S1_RKS2_,_ZNSt19_Sp_counted_deleterIPfSt17__sp_array_deleteSaIvELN9__gnu_cxx12_Lock_policyE2EEC2ES0_S1_RKS2_
	.section	.text._ZNSt15__allocated_ptrISaISt19_Sp_counted_deleterIPfSt17__sp_array_deleteSaIvELN9__gnu_cxx12_Lock_policyE2EEEEaSEDn,"axG",@progbits,_ZNSt15__allocated_ptrISaISt19_Sp_counted_deleterIPfSt17__sp_array_deleteSaIvELN9__gnu_cxx12_Lock_policyE2EEEEaSEDn,comdat
	.align 2
	.weak	_ZNSt15__allocated_ptrISaISt19_Sp_counted_deleterIPfSt17__sp_array_deleteSaIvELN9__gnu_cxx12_Lock_policyE2EEEEaSEDn
	.type	_ZNSt15__allocated_ptrISaISt19_Sp_counted_deleterIPfSt17__sp_array_deleteSaIvELN9__gnu_cxx12_Lock_policyE2EEEEaSEDn, @function
_ZNSt15__allocated_ptrISaISt19_Sp_counted_deleterIPfSt17__sp_array_deleteSaIvELN9__gnu_cxx12_Lock_policyE2EEEEaSEDn:
.LFB4084:
	.loc 10 79 7
	.cfi_startproc
	endbr64
	push	rbp
	.cfi_def_cfa_offset 16
	.cfi_offset 6, -16
	mov	rbp, rsp
	.cfi_def_cfa_register 6
	mov	QWORD PTR -8[rbp], rdi
	mov	QWORD PTR -16[rbp], rsi
	.loc 10 81 9
	mov	rax, QWORD PTR -8[rbp]
	mov	QWORD PTR 8[rax], 0
	.loc 10 82 10
	mov	rax, QWORD PTR -8[rbp]
	.loc 10 83 7
	pop	rbp
	.cfi_def_cfa 7, 8
	ret
	.cfi_endproc
.LFE4084:
	.size	_ZNSt15__allocated_ptrISaISt19_Sp_counted_deleterIPfSt17__sp_array_deleteSaIvELN9__gnu_cxx12_Lock_policyE2EEEEaSEDn, .-_ZNSt15__allocated_ptrISaISt19_Sp_counted_deleterIPfSt17__sp_array_deleteSaIvELN9__gnu_cxx12_Lock_policyE2EEEEaSEDn
	.section	.text._ZNKSt17__sp_array_deleteclIfEEvPT_,"axG",@progbits,_ZNKSt17__sp_array_deleteclIfEEvPT_,comdat
	.align 2
	.weak	_ZNKSt17__sp_array_deleteclIfEEvPT_
	.type	_ZNKSt17__sp_array_deleteclIfEEvPT_, @function
_ZNKSt17__sp_array_deleteclIfEEvPT_:
.LFB4085:
	.loc 4 889 12
	.cfi_startproc
	endbr64
	push	rbp
	.cfi_def_cfa_offset 16
	.cfi_offset 6, -16
	mov	rbp, rsp
	.cfi_def_cfa_register 6
	sub	rsp, 16
	mov	QWORD PTR -8[rbp], rdi
	mov	QWORD PTR -16[rbp], rsi
	.loc 4 889 41
	cmp	QWORD PTR -16[rbp], 0
	je	.L214
	.loc 4 889 41 is_stmt 0 discriminator 1
	mov	rax, QWORD PTR -16[rbp]
	mov	rdi, rax
	call	_ZdaPv@PLT
.L214:
	.loc 4 889 55 is_stmt 1
	nop
	leave
	.cfi_def_cfa 7, 8
	ret
	.cfi_endproc
.LFE4085:
	.size	_ZNKSt17__sp_array_deleteclIfEEvPT_, .-_ZNKSt17__sp_array_deleteclIfEEvPT_
	.section	.text._ZNSt15__allocated_ptrISaISt19_Sp_counted_deleterIPfSt17__sp_array_deleteSaIvELN9__gnu_cxx12_Lock_policyE2EEEEC2ERS7_PS6_,"axG",@progbits,_ZNSt15__allocated_ptrISaISt19_Sp_counted_deleterIPfSt17__sp_array_deleteSaIvELN9__gnu_cxx12_Lock_policyE2EEEEC5ERS7_PS6_,comdat
	.align 2
	.weak	_ZNSt15__allocated_ptrISaISt19_Sp_counted_deleterIPfSt17__sp_array_deleteSaIvELN9__gnu_cxx12_Lock_policyE2EEEEC2ERS7_PS6_
	.type	_ZNSt15__allocated_ptrISaISt19_Sp_counted_deleterIPfSt17__sp_array_deleteSaIvELN9__gnu_cxx12_Lock_policyE2EEEEC2ERS7_PS6_, @function
_ZNSt15__allocated_ptrISaISt19_Sp_counted_deleterIPfSt17__sp_array_deleteSaIvELN9__gnu_cxx12_Lock_policyE2EEEEC2ERS7_PS6_:
.LFB4104:
	.loc 10 53 7
	.cfi_startproc
	endbr64
	push	rbp
	.cfi_def_cfa_offset 16
	.cfi_offset 6, -16
	mov	rbp, rsp
	.cfi_def_cfa_register 6
	sub	rsp, 32
	mov	QWORD PTR -8[rbp], rdi
	mov	QWORD PTR -16[rbp], rsi
	mov	QWORD PTR -24[rbp], rdx
.LBB164:
	.loc 10 54 34
	mov	rax, QWORD PTR -16[rbp]
	mov	rdi, rax
	call	_ZSt11__addressofISaISt19_Sp_counted_deleterIPfSt17__sp_array_deleteSaIvELN9__gnu_cxx12_Lock_policyE2EEEEPT_RS8_
	.loc 10 54 9 discriminator 1
	mov	rdx, QWORD PTR -8[rbp]
	mov	QWORD PTR [rdx], rax
	.loc 10 54 42 discriminator 1
	mov	rax, QWORD PTR -8[rbp]
	mov	rdx, QWORD PTR -24[rbp]
	mov	QWORD PTR 8[rax], rdx
.LBE164:
	.loc 10 55 9
	nop
	leave
	.cfi_def_cfa 7, 8
	ret
	.cfi_endproc
.LFE4104:
	.size	_ZNSt15__allocated_ptrISaISt19_Sp_counted_deleterIPfSt17__sp_array_deleteSaIvELN9__gnu_cxx12_Lock_policyE2EEEEC2ERS7_PS6_, .-_ZNSt15__allocated_ptrISaISt19_Sp_counted_deleterIPfSt17__sp_array_deleteSaIvELN9__gnu_cxx12_Lock_policyE2EEEEC2ERS7_PS6_
	.weak	_ZNSt15__allocated_ptrISaISt19_Sp_counted_deleterIPfSt17__sp_array_deleteSaIvELN9__gnu_cxx12_Lock_policyE2EEEEC1ERS7_PS6_
	.set	_ZNSt15__allocated_ptrISaISt19_Sp_counted_deleterIPfSt17__sp_array_deleteSaIvELN9__gnu_cxx12_Lock_policyE2EEEEC1ERS7_PS6_,_ZNSt15__allocated_ptrISaISt19_Sp_counted_deleterIPfSt17__sp_array_deleteSaIvELN9__gnu_cxx12_Lock_policyE2EEEEC2ERS7_PS6_
	.section	.text._ZSt12__to_addressISt19_Sp_counted_deleterIPfSt17__sp_array_deleteSaIvELN9__gnu_cxx12_Lock_policyE2EEEPT_S8_,"axG",@progbits,_ZSt12__to_addressISt19_Sp_counted_deleterIPfSt17__sp_array_deleteSaIvELN9__gnu_cxx12_Lock_policyE2EEEPT_S8_,comdat
	.weak	_ZSt12__to_addressISt19_Sp_counted_deleterIPfSt17__sp_array_deleteSaIvELN9__gnu_cxx12_Lock_policyE2EEEPT_S8_
	.type	_ZSt12__to_addressISt19_Sp_counted_deleterIPfSt17__sp_array_deleteSaIvELN9__gnu_cxx12_Lock_policyE2EEEPT_S8_, @function
_ZSt12__to_addressISt19_Sp_counted_deleterIPfSt17__sp_array_deleteSaIvELN9__gnu_cxx12_Lock_policyE2EEEPT_S8_:
.LFB4107:
	.file 12 "/usr/include/c++/13/bits/ptr_traits.h"
	.loc 12 212 5
	.cfi_startproc
	endbr64
	push	rbp
	.cfi_def_cfa_offset 16
	.cfi_offset 6, -16
	mov	rbp, rsp
	.cfi_def_cfa_register 6
	mov	QWORD PTR -8[rbp], rdi
	.loc 12 215 14
	mov	rax, QWORD PTR -8[rbp]
	.loc 12 216 5
	pop	rbp
	.cfi_def_cfa 7, 8
	ret
	.cfi_endproc
.LFE4107:
	.size	_ZSt12__to_addressISt19_Sp_counted_deleterIPfSt17__sp_array_deleteSaIvELN9__gnu_cxx12_Lock_policyE2EEEPT_S8_, .-_ZSt12__to_addressISt19_Sp_counted_deleterIPfSt17__sp_array_deleteSaIvELN9__gnu_cxx12_Lock_policyE2EEEPT_S8_
	.section	.text._ZNSt16_Sp_counted_baseILN9__gnu_cxx12_Lock_policyE2EEC2Ev,"axG",@progbits,_ZNSt16_Sp_counted_baseILN9__gnu_cxx12_Lock_policyE2EEC5Ev,comdat
	.align 2
	.weak	_ZNSt16_Sp_counted_baseILN9__gnu_cxx12_Lock_policyE2EEC2Ev
	.type	_ZNSt16_Sp_counted_baseILN9__gnu_cxx12_Lock_policyE2EEC2Ev, @function
_ZNSt16_Sp_counted_baseILN9__gnu_cxx12_Lock_policyE2EEC2Ev:
.LFB4109:
	.loc 4 129 7
	.cfi_startproc
	endbr64
	push	rbp
	.cfi_def_cfa_offset 16
	.cfi_offset 6, -16
	mov	rbp, rsp
	.cfi_def_cfa_register 6
	mov	QWORD PTR -8[rbp], rdi
.LBB165:
	.loc 4 130 41
	lea	rdx, _ZTVSt16_Sp_counted_baseILN9__gnu_cxx12_Lock_policyE2EE[rip+16]
	mov	rax, QWORD PTR -8[rbp]
	mov	QWORD PTR [rax], rdx
	.loc 4 130 9
	mov	rax, QWORD PTR -8[rbp]
	mov	DWORD PTR 8[rax], 1
	.loc 4 130 26
	mov	rax, QWORD PTR -8[rbp]
	mov	DWORD PTR 12[rax], 1
.LBE165:
	.loc 4 130 45
	nop
	pop	rbp
	.cfi_def_cfa 7, 8
	ret
	.cfi_endproc
.LFE4109:
	.size	_ZNSt16_Sp_counted_baseILN9__gnu_cxx12_Lock_policyE2EEC2Ev, .-_ZNSt16_Sp_counted_baseILN9__gnu_cxx12_Lock_policyE2EEC2Ev
	.weak	_ZNSt16_Sp_counted_baseILN9__gnu_cxx12_Lock_policyE2EEC1Ev
	.set	_ZNSt16_Sp_counted_baseILN9__gnu_cxx12_Lock_policyE2EEC1Ev,_ZNSt16_Sp_counted_baseILN9__gnu_cxx12_Lock_policyE2EEC2Ev
	.section	.text._ZNSt19_Sp_counted_deleterIPfSt17__sp_array_deleteSaIvELN9__gnu_cxx12_Lock_policyE2EE5_ImplC2ES0_S1_RKS2_,"axG",@progbits,_ZNSt19_Sp_counted_deleterIPfSt17__sp_array_deleteSaIvELN9__gnu_cxx12_Lock_policyE2EE5_ImplC5ES0_S1_RKS2_,comdat
	.align 2
	.weak	_ZNSt19_Sp_counted_deleterIPfSt17__sp_array_deleteSaIvELN9__gnu_cxx12_Lock_policyE2EE5_ImplC2ES0_S1_RKS2_
	.type	_ZNSt19_Sp_counted_deleterIPfSt17__sp_array_deleteSaIvELN9__gnu_cxx12_Lock_policyE2EE5_ImplC2ES0_S1_RKS2_, @function
_ZNSt19_Sp_counted_deleterIPfSt17__sp_array_deleteSaIvELN9__gnu_cxx12_Lock_policyE2EE5_ImplC2ES0_S1_RKS2_:
.LFB4112:
	.loc 4 502 2
	.cfi_startproc
	endbr64
	push	rbp
	.cfi_def_cfa_offset 16
	.cfi_offset 6, -16
	mov	rbp, rsp
	.cfi_def_cfa_register 6
	sub	rsp, 32
	mov	QWORD PTR -8[rbp], rdi
	mov	QWORD PTR -16[rbp], rsi
	mov	QWORD PTR -32[rbp], rdx
.LBB166:
	.loc 4 503 23
	lea	rax, -17[rbp]
	mov	rdi, rax
	call	_ZSt4moveIRSt17__sp_array_deleteEONSt16remove_referenceIT_E4typeEOS3_
	mov	rdx, rax
	.loc 4 503 59 discriminator 1
	mov	rax, QWORD PTR -8[rbp]
	mov	rsi, rdx
	mov	rdi, rax
	call	_ZNSt14_Sp_ebo_helperILi0ESt17__sp_array_deleteLb1EEC2EOS0_
	.loc 4 503 59 is_stmt 0 discriminator 2
	mov	rdx, QWORD PTR -32[rbp]
	mov	rax, QWORD PTR -8[rbp]
	mov	rsi, rdx
	mov	rdi, rax
	call	_ZNSt14_Sp_ebo_helperILi1ESaIvELb1EEC2ERKS0_
	.loc 4 503 49 is_stmt 1 discriminator 3
	mov	rax, QWORD PTR -8[rbp]
	mov	rdx, QWORD PTR -16[rbp]
	mov	QWORD PTR [rax], rdx
.LBE166:
	.loc 4 504 4
	nop
	leave
	.cfi_def_cfa 7, 8
	ret
	.cfi_endproc
.LFE4112:
	.size	_ZNSt19_Sp_counted_deleterIPfSt17__sp_array_deleteSaIvELN9__gnu_cxx12_Lock_policyE2EE5_ImplC2ES0_S1_RKS2_, .-_ZNSt19_Sp_counted_deleterIPfSt17__sp_array_deleteSaIvELN9__gnu_cxx12_Lock_policyE2EE5_ImplC2ES0_S1_RKS2_
	.weak	_ZNSt19_Sp_counted_deleterIPfSt17__sp_array_deleteSaIvELN9__gnu_cxx12_Lock_policyE2EE5_ImplC1ES0_S1_RKS2_
	.set	_ZNSt19_Sp_counted_deleterIPfSt17__sp_array_deleteSaIvELN9__gnu_cxx12_Lock_policyE2EE5_ImplC1ES0_S1_RKS2_,_ZNSt19_Sp_counted_deleterIPfSt17__sp_array_deleteSaIvELN9__gnu_cxx12_Lock_policyE2EE5_ImplC2ES0_S1_RKS2_
	.section	.text._ZSt11__addressofISaISt19_Sp_counted_deleterIPfSt17__sp_array_deleteSaIvELN9__gnu_cxx12_Lock_policyE2EEEEPT_RS8_,"axG",@progbits,_ZSt11__addressofISaISt19_Sp_counted_deleterIPfSt17__sp_array_deleteSaIvELN9__gnu_cxx12_Lock_policyE2EEEEPT_RS8_,comdat
	.weak	_ZSt11__addressofISaISt19_Sp_counted_deleterIPfSt17__sp_array_deleteSaIvELN9__gnu_cxx12_Lock_policyE2EEEEPT_RS8_
	.type	_ZSt11__addressofISaISt19_Sp_counted_deleterIPfSt17__sp_array_deleteSaIvELN9__gnu_cxx12_Lock_policyE2EEEEPT_RS8_, @function
_ZSt11__addressofISaISt19_Sp_counted_deleterIPfSt17__sp_array_deleteSaIvELN9__gnu_cxx12_Lock_policyE2EEEEPT_RS8_:
.LFB4124:
	.loc 8 51 5
	.cfi_startproc
	endbr64
	push	rbp
	.cfi_def_cfa_offset 16
	.cfi_offset 6, -16
	mov	rbp, rsp
	.cfi_def_cfa_register 6
	mov	QWORD PTR -8[rbp], rdi
	.loc 8 52 37
	mov	rax, QWORD PTR -8[rbp]
	.loc 8 52 40
	pop	rbp
	.cfi_def_cfa 7, 8
	ret
	.cfi_endproc
.LFE4124:
	.size	_ZSt11__addressofISaISt19_Sp_counted_deleterIPfSt17__sp_array_deleteSaIvELN9__gnu_cxx12_Lock_policyE2EEEEPT_RS8_, .-_ZSt11__addressofISaISt19_Sp_counted_deleterIPfSt17__sp_array_deleteSaIvELN9__gnu_cxx12_Lock_policyE2EEEEPT_RS8_
	.section	.text._ZNSt14_Sp_ebo_helperILi0ESt17__sp_array_deleteLb1EEC2EOS0_,"axG",@progbits,_ZNSt14_Sp_ebo_helperILi0ESt17__sp_array_deleteLb1EEC5EOS0_,comdat
	.align 2
	.weak	_ZNSt14_Sp_ebo_helperILi0ESt17__sp_array_deleteLb1EEC2EOS0_
	.type	_ZNSt14_Sp_ebo_helperILi0ESt17__sp_array_deleteLb1EEC2EOS0_, @function
_ZNSt14_Sp_ebo_helperILi0ESt17__sp_array_deleteLb1EEC2EOS0_:
.LFB4127:
	.loc 4 471 16
	.cfi_startproc
	endbr64
	push	rbp
	.cfi_def_cfa_offset 16
	.cfi_offset 6, -16
	mov	rbp, rsp
	.cfi_def_cfa_register 6
	sub	rsp, 16
	mov	QWORD PTR -8[rbp], rdi
	mov	QWORD PTR -16[rbp], rsi
.LBB167:
	.loc 4 471 58
	mov	rax, QWORD PTR -16[rbp]
	mov	rdi, rax
	call	_ZSt4moveIRSt17__sp_array_deleteEONSt16remove_referenceIT_E4typeEOS3_
.LBE167:
	.loc 4 471 68
	nop
	leave
	.cfi_def_cfa 7, 8
	ret
	.cfi_endproc
.LFE4127:
	.size	_ZNSt14_Sp_ebo_helperILi0ESt17__sp_array_deleteLb1EEC2EOS0_, .-_ZNSt14_Sp_ebo_helperILi0ESt17__sp_array_deleteLb1EEC2EOS0_
	.weak	_ZNSt14_Sp_ebo_helperILi0ESt17__sp_array_deleteLb1EEC1EOS0_
	.set	_ZNSt14_Sp_ebo_helperILi0ESt17__sp_array_deleteLb1EEC1EOS0_,_ZNSt14_Sp_ebo_helperILi0ESt17__sp_array_deleteLb1EEC2EOS0_
	.section	.text._ZNSt14_Sp_ebo_helperILi1ESaIvELb1EEC2ERKS0_,"axG",@progbits,_ZNSt14_Sp_ebo_helperILi1ESaIvELb1EEC5ERKS0_,comdat
	.align 2
	.weak	_ZNSt14_Sp_ebo_helperILi1ESaIvELb1EEC2ERKS0_
	.type	_ZNSt14_Sp_ebo_helperILi1ESaIvELb1EEC2ERKS0_, @function
_ZNSt14_Sp_ebo_helperILi1ESaIvELb1EEC2ERKS0_:
.LFB4130:
	.loc 4 470 16
	.cfi_startproc
	endbr64
	push	rbp
	.cfi_def_cfa_offset 16
	.cfi_offset 6, -16
	mov	rbp, rsp
	.cfi_def_cfa_register 6
	mov	QWORD PTR -8[rbp], rdi
	mov	QWORD PTR -16[rbp], rsi
	.loc 4 470 62
	nop
	pop	rbp
	.cfi_def_cfa 7, 8
	ret
	.cfi_endproc
.LFE4130:
	.size	_ZNSt14_Sp_ebo_helperILi1ESaIvELb1EEC2ERKS0_, .-_ZNSt14_Sp_ebo_helperILi1ESaIvELb1EEC2ERKS0_
	.weak	_ZNSt14_Sp_ebo_helperILi1ESaIvELb1EEC1ERKS0_
	.set	_ZNSt14_Sp_ebo_helperILi1ESaIvELb1EEC1ERKS0_,_ZNSt14_Sp_ebo_helperILi1ESaIvELb1EEC2ERKS0_
	.section	.text._ZNSt15__new_allocatorISt19_Sp_counted_deleterIPfSt17__sp_array_deleteSaIvELN9__gnu_cxx12_Lock_policyE2EEE8allocateEmPKv,"axG",@progbits,_ZNSt15__new_allocatorISt19_Sp_counted_deleterIPfSt17__sp_array_deleteSaIvELN9__gnu_cxx12_Lock_policyE2EEE8allocateEmPKv,comdat
	.align 2
	.weak	_ZNSt15__new_allocatorISt19_Sp_counted_deleterIPfSt17__sp_array_deleteSaIvELN9__gnu_cxx12_Lock_policyE2EEE8allocateEmPKv
	.type	_ZNSt15__new_allocatorISt19_Sp_counted_deleterIPfSt17__sp_array_deleteSaIvELN9__gnu_cxx12_Lock_policyE2EEE8allocateEmPKv, @function
_ZNSt15__new_allocatorISt19_Sp_counted_deleterIPfSt17__sp_array_deleteSaIvELN9__gnu_cxx12_Lock_policyE2EEE8allocateEmPKv:
.LFB4137:
	.file 13 "/usr/include/c++/13/bits/new_allocator.h"
	.loc 13 126 7
	.cfi_startproc
	endbr64
	push	rbp
	.cfi_def_cfa_offset 16
	.cfi_offset 6, -16
	mov	rbp, rsp
	.cfi_def_cfa_register 6
	sub	rsp, 48
	mov	QWORD PTR -24[rbp], rdi
	mov	QWORD PTR -32[rbp], rsi
	mov	QWORD PTR -40[rbp], rdx
	mov	rax, QWORD PTR -24[rbp]
	mov	QWORD PTR -8[rbp], rax
.LBB168:
.LBB169:
	.loc 13 233 50
	movabs	rax, 384307168202282325
.LBE169:
.LBE168:
	.loc 13 134 27 discriminator 1
	cmp	rax, QWORD PTR -32[rbp]
	setb	al
	.loc 13 134 22 discriminator 1
	movzx	eax, al
	.loc 13 134 22 is_stmt 0 discriminator 2
	test	rax, rax
	setne	al
	.loc 13 134 2 is_stmt 1 discriminator 2
	test	al, al
	je	.L226
	.loc 13 138 6
	movabs	rax, 768614336404564650
	cmp	rax, QWORD PTR -32[rbp]
	jnb	.L227
	.loc 13 139 41
	call	_ZSt28__throw_bad_array_new_lengthv@PLT
.L227:
	.loc 13 140 28
	call	_ZSt17__throw_bad_allocv@PLT
.L226:
	.loc 13 151 48
	mov	rdx, QWORD PTR -32[rbp]
	mov	rax, rdx
	add	rax, rax
	add	rax, rdx
	sal	rax, 3
	mov	rdi, rax
	call	_Znwm@PLT
	.loc 13 151 67
	nop
	.loc 13 152 7
	leave
	.cfi_def_cfa 7, 8
	ret
	.cfi_endproc
.LFE4137:
	.size	_ZNSt15__new_allocatorISt19_Sp_counted_deleterIPfSt17__sp_array_deleteSaIvELN9__gnu_cxx12_Lock_policyE2EEE8allocateEmPKv, .-_ZNSt15__new_allocatorISt19_Sp_counted_deleterIPfSt17__sp_array_deleteSaIvELN9__gnu_cxx12_Lock_policyE2EEE8allocateEmPKv
	.section	.text._ZNSt15__new_allocatorISt19_Sp_counted_deleterIPfSt17__sp_array_deleteSaIvELN9__gnu_cxx12_Lock_policyE2EEE10deallocateEPS6_m,"axG",@progbits,_ZNSt15__new_allocatorISt19_Sp_counted_deleterIPfSt17__sp_array_deleteSaIvELN9__gnu_cxx12_Lock_policyE2EEE10deallocateEPS6_m,comdat
	.align 2
	.weak	_ZNSt15__new_allocatorISt19_Sp_counted_deleterIPfSt17__sp_array_deleteSaIvELN9__gnu_cxx12_Lock_policyE2EEE10deallocateEPS6_m
	.type	_ZNSt15__new_allocatorISt19_Sp_counted_deleterIPfSt17__sp_array_deleteSaIvELN9__gnu_cxx12_Lock_policyE2EEE10deallocateEPS6_m, @function
_ZNSt15__new_allocatorISt19_Sp_counted_deleterIPfSt17__sp_array_deleteSaIvELN9__gnu_cxx12_Lock_policyE2EEE10deallocateEPS6_m:
.LFB4138:
	.loc 13 156 7
	.cfi_startproc
	endbr64
	push	rbp
	.cfi_def_cfa_offset 16
	.cfi_offset 6, -16
	mov	rbp, rsp
	.cfi_def_cfa_register 6
	sub	rsp, 32
	mov	QWORD PTR -8[rbp], rdi
	mov	QWORD PTR -16[rbp], rsi
	mov	QWORD PTR -24[rbp], rdx
	.loc 13 172 26
	mov	rdx, QWORD PTR -24[rbp]
	mov	rax, rdx
	add	rax, rax
	add	rax, rdx
	sal	rax, 3
	mov	rdx, rax
	mov	rax, QWORD PTR -16[rbp]
	mov	rsi, rdx
	mov	rdi, rax
	call	_ZdlPvm@PLT
	.loc 13 173 7
	leave
	.cfi_def_cfa 7, 8
	ret
	.cfi_endproc
.LFE4138:
	.size	_ZNSt15__new_allocatorISt19_Sp_counted_deleterIPfSt17__sp_array_deleteSaIvELN9__gnu_cxx12_Lock_policyE2EEE10deallocateEPS6_m, .-_ZNSt15__new_allocatorISt19_Sp_counted_deleterIPfSt17__sp_array_deleteSaIvELN9__gnu_cxx12_Lock_policyE2EEE10deallocateEPS6_m
	.weak	_ZTVSt19_Sp_counted_deleterIPfSt17__sp_array_deleteSaIvELN9__gnu_cxx12_Lock_policyE2EE
	.section	.data.rel.ro.local._ZTVSt19_Sp_counted_deleterIPfSt17__sp_array_deleteSaIvELN9__gnu_cxx12_Lock_policyE2EE,"awG",@progbits,_ZTVSt19_Sp_counted_deleterIPfSt17__sp_array_deleteSaIvELN9__gnu_cxx12_Lock_policyE2EE,comdat
	.align 8
	.type	_ZTVSt19_Sp_counted_deleterIPfSt17__sp_array_deleteSaIvELN9__gnu_cxx12_Lock_policyE2EE, @object
	.size	_ZTVSt19_Sp_counted_deleterIPfSt17__sp_array_deleteSaIvELN9__gnu_cxx12_Lock_policyE2EE, 56
_ZTVSt19_Sp_counted_deleterIPfSt17__sp_array_deleteSaIvELN9__gnu_cxx12_Lock_policyE2EE:
	.quad	0
	.quad	_ZTISt19_Sp_counted_deleterIPfSt17__sp_array_deleteSaIvELN9__gnu_cxx12_Lock_policyE2EE
	.quad	_ZNSt19_Sp_counted_deleterIPfSt17__sp_array_deleteSaIvELN9__gnu_cxx12_Lock_policyE2EED1Ev
	.quad	_ZNSt19_Sp_counted_deleterIPfSt17__sp_array_deleteSaIvELN9__gnu_cxx12_Lock_policyE2EED0Ev
	.quad	_ZNSt19_Sp_counted_deleterIPfSt17__sp_array_deleteSaIvELN9__gnu_cxx12_Lock_policyE2EE10_M_disposeEv
	.quad	_ZNSt19_Sp_counted_deleterIPfSt17__sp_array_deleteSaIvELN9__gnu_cxx12_Lock_policyE2EE10_M_destroyEv
	.quad	_ZNSt19_Sp_counted_deleterIPfSt17__sp_array_deleteSaIvELN9__gnu_cxx12_Lock_policyE2EE14_M_get_deleterERKSt9type_info
	.weak	_ZTVSt16_Sp_counted_baseILN9__gnu_cxx12_Lock_policyE2EE
	.section	.data.rel.ro._ZTVSt16_Sp_counted_baseILN9__gnu_cxx12_Lock_policyE2EE,"awG",@progbits,_ZTVSt16_Sp_counted_baseILN9__gnu_cxx12_Lock_policyE2EE,comdat
	.align 8
	.type	_ZTVSt16_Sp_counted_baseILN9__gnu_cxx12_Lock_policyE2EE, @object
	.size	_ZTVSt16_Sp_counted_baseILN9__gnu_cxx12_Lock_policyE2EE, 56
_ZTVSt16_Sp_counted_baseILN9__gnu_cxx12_Lock_policyE2EE:
	.quad	0
	.quad	_ZTISt16_Sp_counted_baseILN9__gnu_cxx12_Lock_policyE2EE
	.quad	0
	.quad	0
	.quad	__cxa_pure_virtual
	.quad	_ZNSt16_Sp_counted_baseILN9__gnu_cxx12_Lock_policyE2EE10_M_destroyEv
	.quad	__cxa_pure_virtual
	.weak	_ZTISt19_Sp_counted_deleterIPfSt17__sp_array_deleteSaIvELN9__gnu_cxx12_Lock_policyE2EE
	.section	.data.rel.ro._ZTISt19_Sp_counted_deleterIPfSt17__sp_array_deleteSaIvELN9__gnu_cxx12_Lock_policyE2EE,"awG",@progbits,_ZTISt19_Sp_counted_deleterIPfSt17__sp_array_deleteSaIvELN9__gnu_cxx12_Lock_policyE2EE,comdat
	.align 8
	.type	_ZTISt19_Sp_counted_deleterIPfSt17__sp_array_deleteSaIvELN9__gnu_cxx12_Lock_policyE2EE, @object
	.size	_ZTISt19_Sp_counted_deleterIPfSt17__sp_array_deleteSaIvELN9__gnu_cxx12_Lock_policyE2EE, 24
_ZTISt19_Sp_counted_deleterIPfSt17__sp_array_deleteSaIvELN9__gnu_cxx12_Lock_policyE2EE:
	.quad	_ZTVN10__cxxabiv120__si_class_type_infoE+16
	.quad	_ZTSSt19_Sp_counted_deleterIPfSt17__sp_array_deleteSaIvELN9__gnu_cxx12_Lock_policyE2EE
	.quad	_ZTISt16_Sp_counted_baseILN9__gnu_cxx12_Lock_policyE2EE
	.weak	_ZTSSt19_Sp_counted_deleterIPfSt17__sp_array_deleteSaIvELN9__gnu_cxx12_Lock_policyE2EE
	.section	.rodata._ZTSSt19_Sp_counted_deleterIPfSt17__sp_array_deleteSaIvELN9__gnu_cxx12_Lock_policyE2EE,"aG",@progbits,_ZTSSt19_Sp_counted_deleterIPfSt17__sp_array_deleteSaIvELN9__gnu_cxx12_Lock_policyE2EE,comdat
	.align 32
	.type	_ZTSSt19_Sp_counted_deleterIPfSt17__sp_array_deleteSaIvELN9__gnu_cxx12_Lock_policyE2EE, @object
	.size	_ZTSSt19_Sp_counted_deleterIPfSt17__sp_array_deleteSaIvELN9__gnu_cxx12_Lock_policyE2EE, 83
_ZTSSt19_Sp_counted_deleterIPfSt17__sp_array_deleteSaIvELN9__gnu_cxx12_Lock_policyE2EE:
	.string	"St19_Sp_counted_deleterIPfSt17__sp_array_deleteSaIvELN9__gnu_cxx12_Lock_policyE2EE"
	.weak	_ZTISt16_Sp_counted_baseILN9__gnu_cxx12_Lock_policyE2EE
	.section	.data.rel.ro._ZTISt16_Sp_counted_baseILN9__gnu_cxx12_Lock_policyE2EE,"awG",@progbits,_ZTISt16_Sp_counted_baseILN9__gnu_cxx12_Lock_policyE2EE,comdat
	.align 8
	.type	_ZTISt16_Sp_counted_baseILN9__gnu_cxx12_Lock_policyE2EE, @object
	.size	_ZTISt16_Sp_counted_baseILN9__gnu_cxx12_Lock_policyE2EE, 24
_ZTISt16_Sp_counted_baseILN9__gnu_cxx12_Lock_policyE2EE:
	.quad	_ZTVN10__cxxabiv120__si_class_type_infoE+16
	.quad	_ZTSSt16_Sp_counted_baseILN9__gnu_cxx12_Lock_policyE2EE
	.quad	_ZTISt11_Mutex_baseILN9__gnu_cxx12_Lock_policyE2EE
	.weak	_ZTSSt16_Sp_counted_baseILN9__gnu_cxx12_Lock_policyE2EE
	.section	.rodata._ZTSSt16_Sp_counted_baseILN9__gnu_cxx12_Lock_policyE2EE,"aG",@progbits,_ZTSSt16_Sp_counted_baseILN9__gnu_cxx12_Lock_policyE2EE,comdat
	.align 32
	.type	_ZTSSt16_Sp_counted_baseILN9__gnu_cxx12_Lock_policyE2EE, @object
	.size	_ZTSSt16_Sp_counted_baseILN9__gnu_cxx12_Lock_policyE2EE, 52
_ZTSSt16_Sp_counted_baseILN9__gnu_cxx12_Lock_policyE2EE:
	.string	"St16_Sp_counted_baseILN9__gnu_cxx12_Lock_policyE2EE"
	.section	.rodata
	.type	_ZNSt8__detail30__integer_to_chars_is_unsignedIjEE, @object
	.size	_ZNSt8__detail30__integer_to_chars_is_unsignedIjEE, 1
_ZNSt8__detail30__integer_to_chars_is_unsignedIjEE:
	.byte	1
	.type	_ZNSt8__detail30__integer_to_chars_is_unsignedImEE, @object
	.size	_ZNSt8__detail30__integer_to_chars_is_unsignedImEE, 1
_ZNSt8__detail30__integer_to_chars_is_unsignedImEE:
	.byte	1
	.type	_ZNSt8__detail30__integer_to_chars_is_unsignedIyEE, @object
	.size	_ZNSt8__detail30__integer_to_chars_is_unsignedIyEE, 1
_ZNSt8__detail30__integer_to_chars_is_unsignedIyEE:
	.byte	1
	.section	.text._ZNSt19_Sp_counted_deleterIPfSt17__sp_array_deleteSaIvELN9__gnu_cxx12_Lock_policyE2EED2Ev,"axG",@progbits,_ZNSt19_Sp_counted_deleterIPfSt17__sp_array_deleteSaIvELN9__gnu_cxx12_Lock_policyE2EED5Ev,comdat
	.align 2
	.weak	_ZNSt19_Sp_counted_deleterIPfSt17__sp_array_deleteSaIvELN9__gnu_cxx12_Lock_policyE2EED2Ev
	.type	_ZNSt19_Sp_counted_deleterIPfSt17__sp_array_deleteSaIvELN9__gnu_cxx12_Lock_policyE2EED2Ev, @function
_ZNSt19_Sp_counted_deleterIPfSt17__sp_array_deleteSaIvELN9__gnu_cxx12_Lock_policyE2EED2Ev:
.LFB4141:
	.loc 4 523 7
	.cfi_startproc
	endbr64
	push	rbp
	.cfi_def_cfa_offset 16
	.cfi_offset 6, -16
	mov	rbp, rsp
	.cfi_def_cfa_register 6
	sub	rsp, 16
	mov	QWORD PTR -8[rbp], rdi
.LBB170:
	.loc 4 523 41
	lea	rdx, _ZTVSt19_Sp_counted_deleterIPfSt17__sp_array_deleteSaIvELN9__gnu_cxx12_Lock_policyE2EE[rip+16]
	mov	rax, QWORD PTR -8[rbp]
	mov	QWORD PTR [rax], rdx
	mov	rax, QWORD PTR -8[rbp]
	mov	rdi, rax
	call	_ZNSt16_Sp_counted_baseILN9__gnu_cxx12_Lock_policyE2EED2Ev
.LBE170:
	nop
	leave
	.cfi_def_cfa 7, 8
	ret
	.cfi_endproc
.LFE4141:
	.size	_ZNSt19_Sp_counted_deleterIPfSt17__sp_array_deleteSaIvELN9__gnu_cxx12_Lock_policyE2EED2Ev, .-_ZNSt19_Sp_counted_deleterIPfSt17__sp_array_deleteSaIvELN9__gnu_cxx12_Lock_policyE2EED2Ev
	.weak	_ZNSt19_Sp_counted_deleterIPfSt17__sp_array_deleteSaIvELN9__gnu_cxx12_Lock_policyE2EED1Ev
	.set	_ZNSt19_Sp_counted_deleterIPfSt17__sp_array_deleteSaIvELN9__gnu_cxx12_Lock_policyE2EED1Ev,_ZNSt19_Sp_counted_deleterIPfSt17__sp_array_deleteSaIvELN9__gnu_cxx12_Lock_policyE2EED2Ev
	.section	.text._ZNSt19_Sp_counted_deleterIPfSt17__sp_array_deleteSaIvELN9__gnu_cxx12_Lock_policyE2EED0Ev,"axG",@progbits,_ZNSt19_Sp_counted_deleterIPfSt17__sp_array_deleteSaIvELN9__gnu_cxx12_Lock_policyE2EED5Ev,comdat
	.align 2
	.weak	_ZNSt19_Sp_counted_deleterIPfSt17__sp_array_deleteSaIvELN9__gnu_cxx12_Lock_policyE2EED0Ev
	.type	_ZNSt19_Sp_counted_deleterIPfSt17__sp_array_deleteSaIvELN9__gnu_cxx12_Lock_policyE2EED0Ev, @function
_ZNSt19_Sp_counted_deleterIPfSt17__sp_array_deleteSaIvELN9__gnu_cxx12_Lock_policyE2EED0Ev:
.LFB4143:
	.loc 4 523 7
	.cfi_startproc
	endbr64
	push	rbp
	.cfi_def_cfa_offset 16
	.cfi_offset 6, -16
	mov	rbp, rsp
	.cfi_def_cfa_register 6
	sub	rsp, 16
	mov	QWORD PTR -8[rbp], rdi
	.loc 4 523 41
	mov	rax, QWORD PTR -8[rbp]
	mov	rdi, rax
	call	_ZNSt19_Sp_counted_deleterIPfSt17__sp_array_deleteSaIvELN9__gnu_cxx12_Lock_policyE2EED1Ev
	.loc 4 523 41 is_stmt 0 discriminator 1
	mov	rax, QWORD PTR -8[rbp]
	mov	esi, 24
	mov	rdi, rax
	call	_ZdlPvm@PLT
	.loc 4 523 41
	leave
	.cfi_def_cfa 7, 8
	ret
	.cfi_endproc
.LFE4143:
	.size	_ZNSt19_Sp_counted_deleterIPfSt17__sp_array_deleteSaIvELN9__gnu_cxx12_Lock_policyE2EED0Ev, .-_ZNSt19_Sp_counted_deleterIPfSt17__sp_array_deleteSaIvELN9__gnu_cxx12_Lock_policyE2EED0Ev
	.section	.text._ZNSt19_Sp_counted_deleterIPfSt17__sp_array_deleteSaIvELN9__gnu_cxx12_Lock_policyE2EE10_M_disposeEv,"axG",@progbits,_ZNSt19_Sp_counted_deleterIPfSt17__sp_array_deleteSaIvELN9__gnu_cxx12_Lock_policyE2EE10_M_disposeEv,comdat
	.align 2
	.weak	_ZNSt19_Sp_counted_deleterIPfSt17__sp_array_deleteSaIvELN9__gnu_cxx12_Lock_policyE2EE10_M_disposeEv
	.type	_ZNSt19_Sp_counted_deleterIPfSt17__sp_array_deleteSaIvELN9__gnu_cxx12_Lock_policyE2EE10_M_disposeEv, @function
_ZNSt19_Sp_counted_deleterIPfSt17__sp_array_deleteSaIvELN9__gnu_cxx12_Lock_policyE2EE10_M_disposeEv:
.LFB4144:
	.loc 4 526 7 is_stmt 1
	.cfi_startproc
	endbr64
	push	rbp
	.cfi_def_cfa_offset 16
	.cfi_offset 6, -16
	mov	rbp, rsp
	.cfi_def_cfa_register 6
	sub	rsp, 16
	mov	QWORD PTR -8[rbp], rdi
	.loc 4 527 23
	mov	rax, QWORD PTR -8[rbp]
	add	rax, 16
	mov	rdi, rax
	call	_ZNSt19_Sp_counted_deleterIPfSt17__sp_array_deleteSaIvELN9__gnu_cxx12_Lock_policyE2EE5_Impl6_M_delEv
	mov	rdx, rax
	.loc 4 527 25 discriminator 1
	mov	rax, QWORD PTR -8[rbp]
	mov	rax, QWORD PTR 16[rax]
	mov	rsi, rax
	mov	rdi, rdx
	call	_ZNKSt17__sp_array_deleteclIfEEvPT_
	.loc 4 527 43
	nop
	leave
	.cfi_def_cfa 7, 8
	ret
	.cfi_endproc
.LFE4144:
	.size	_ZNSt19_Sp_counted_deleterIPfSt17__sp_array_deleteSaIvELN9__gnu_cxx12_Lock_policyE2EE10_M_disposeEv, .-_ZNSt19_Sp_counted_deleterIPfSt17__sp_array_deleteSaIvELN9__gnu_cxx12_Lock_policyE2EE10_M_disposeEv
	.section	.text._ZNSt19_Sp_counted_deleterIPfSt17__sp_array_deleteSaIvELN9__gnu_cxx12_Lock_policyE2EE10_M_destroyEv,"axG",@progbits,_ZNSt19_Sp_counted_deleterIPfSt17__sp_array_deleteSaIvELN9__gnu_cxx12_Lock_policyE2EE10_M_destroyEv,comdat
	.align 2
	.weak	_ZNSt19_Sp_counted_deleterIPfSt17__sp_array_deleteSaIvELN9__gnu_cxx12_Lock_policyE2EE10_M_destroyEv
	.type	_ZNSt19_Sp_counted_deleterIPfSt17__sp_array_deleteSaIvELN9__gnu_cxx12_Lock_policyE2EE10_M_destroyEv, @function
_ZNSt19_Sp_counted_deleterIPfSt17__sp_array_deleteSaIvELN9__gnu_cxx12_Lock_policyE2EE10_M_destroyEv:
.LFB4145:
	.loc 4 530 7
	.cfi_startproc
	endbr64
	push	rbp
	.cfi_def_cfa_offset 16
	.cfi_offset 6, -16
	mov	rbp, rsp
	.cfi_def_cfa_register 6
	sub	rsp, 80
	mov	QWORD PTR -72[rbp], rdi
	.loc 4 530 7
	mov	rax, QWORD PTR fs:40
	mov	QWORD PTR -8[rbp], rax
	xor	eax, eax
	.loc 4 532 39
	mov	rax, QWORD PTR -72[rbp]
	add	rax, 16
	mov	rdi, rax
	call	_ZNSt19_Sp_counted_deleterIPfSt17__sp_array_deleteSaIvELN9__gnu_cxx12_Lock_policyE2EE5_Impl8_M_allocEv
	mov	QWORD PTR -48[rbp], rax
	lea	rax, -49[rbp]
	mov	QWORD PTR -40[rbp], rax
.LBB171:
.LBB172:
.LBB173:
.LBB174:
.LBB175:
	.loc 13 88 49
	nop
.LBE175:
.LBE174:
.LBE173:
	.loc 9 178 55
	nop
.LBE172:
.LBE171:
	.loc 4 533 36
	mov	rdx, QWORD PTR -72[rbp]
	lea	rcx, -49[rbp]
	lea	rax, -32[rbp]
	mov	rsi, rcx
	mov	rdi, rax
	call	_ZNSt15__allocated_ptrISaISt19_Sp_counted_deleterIPfSt17__sp_array_deleteSaIvELN9__gnu_cxx12_Lock_policyE2EEEEC1ERS7_PS6_
	.loc 4 534 28
	mov	rax, QWORD PTR -72[rbp]
	mov	rdi, rax
	call	_ZNSt19_Sp_counted_deleterIPfSt17__sp_array_deleteSaIvELN9__gnu_cxx12_Lock_policyE2EED1Ev
	.loc 4 535 7
	lea	rax, -32[rbp]
	mov	rdi, rax
	call	_ZNSt15__allocated_ptrISaISt19_Sp_counted_deleterIPfSt17__sp_array_deleteSaIvELN9__gnu_cxx12_Lock_policyE2EEEED1Ev
.LBB176:
.LBB177:
	.loc 9 184 39
	nop
.LBE177:
.LBE176:
	.loc 4 535 7
	nop
	mov	rax, QWORD PTR -8[rbp]
	sub	rax, QWORD PTR fs:40
	je	.L235
	call	__stack_chk_fail@PLT
.L235:
	leave
	.cfi_def_cfa 7, 8
	ret
	.cfi_endproc
.LFE4145:
	.size	_ZNSt19_Sp_counted_deleterIPfSt17__sp_array_deleteSaIvELN9__gnu_cxx12_Lock_policyE2EE10_M_destroyEv, .-_ZNSt19_Sp_counted_deleterIPfSt17__sp_array_deleteSaIvELN9__gnu_cxx12_Lock_policyE2EE10_M_destroyEv
	.section	.text._ZNSt19_Sp_counted_deleterIPfSt17__sp_array_deleteSaIvELN9__gnu_cxx12_Lock_policyE2EE14_M_get_deleterERKSt9type_info,"axG",@progbits,_ZNSt19_Sp_counted_deleterIPfSt17__sp_array_deleteSaIvELN9__gnu_cxx12_Lock_policyE2EE14_M_get_deleterERKSt9type_info,comdat
	.align 2
	.weak	_ZNSt19_Sp_counted_deleterIPfSt17__sp_array_deleteSaIvELN9__gnu_cxx12_Lock_policyE2EE14_M_get_deleterERKSt9type_info
	.type	_ZNSt19_Sp_counted_deleterIPfSt17__sp_array_deleteSaIvELN9__gnu_cxx12_Lock_policyE2EE14_M_get_deleterERKSt9type_info, @function
_ZNSt19_Sp_counted_deleterIPfSt17__sp_array_deleteSaIvELN9__gnu_cxx12_Lock_policyE2EE14_M_get_deleterERKSt9type_info:
.LFB4146:
	.loc 4 538 7
	.cfi_startproc
	endbr64
	push	rbp
	.cfi_def_cfa_offset 16
	.cfi_offset 6, -16
	mov	rbp, rsp
	.cfi_def_cfa_register 6
	sub	rsp, 16
	mov	QWORD PTR -8[rbp], rdi
	mov	QWORD PTR -16[rbp], rsi
	.loc 4 543 21
	mov	rax, QWORD PTR -16[rbp]
	lea	rdx, _ZTISt17__sp_array_delete[rip]
	mov	rsi, rdx
	mov	rdi, rax
	call	_ZNKSt9type_infoeqERKS_
	.loc 4 544 4
	test	al, al
	je	.L237
	.loc 4 544 22 discriminator 1
	mov	rax, QWORD PTR -8[rbp]
	add	rax, 16
	mov	rdi, rax
	call	_ZNSt19_Sp_counted_deleterIPfSt17__sp_array_deleteSaIvELN9__gnu_cxx12_Lock_policyE2EE5_Impl6_M_delEv
	mov	rdi, rax
	call	_ZSt11__addressofISt17__sp_array_deleteEPT_RS1_
	.loc 4 545 6
	jmp	.L239
.L237:
	.loc 4 544 4 discriminator 2
	mov	eax, 0
.L239:
	.loc 4 549 7
	leave
	.cfi_def_cfa 7, 8
	ret
	.cfi_endproc
.LFE4146:
	.size	_ZNSt19_Sp_counted_deleterIPfSt17__sp_array_deleteSaIvELN9__gnu_cxx12_Lock_policyE2EE14_M_get_deleterERKSt9type_info, .-_ZNSt19_Sp_counted_deleterIPfSt17__sp_array_deleteSaIvELN9__gnu_cxx12_Lock_policyE2EE14_M_get_deleterERKSt9type_info
	.section	.text._ZNSt19_Sp_counted_deleterIPfSt17__sp_array_deleteSaIvELN9__gnu_cxx12_Lock_policyE2EE5_Impl6_M_delEv,"axG",@progbits,_ZNSt19_Sp_counted_deleterIPfSt17__sp_array_deleteSaIvELN9__gnu_cxx12_Lock_policyE2EE5_Impl6_M_delEv,comdat
	.align 2
	.weak	_ZNSt19_Sp_counted_deleterIPfSt17__sp_array_deleteSaIvELN9__gnu_cxx12_Lock_policyE2EE5_Impl6_M_delEv
	.type	_ZNSt19_Sp_counted_deleterIPfSt17__sp_array_deleteSaIvELN9__gnu_cxx12_Lock_policyE2EE5_Impl6_M_delEv, @function
_ZNSt19_Sp_counted_deleterIPfSt17__sp_array_deleteSaIvELN9__gnu_cxx12_Lock_policyE2EE5_Impl6_M_delEv:
.LFB4147:
	.loc 4 506 12
	.cfi_startproc
	endbr64
	push	rbp
	.cfi_def_cfa_offset 16
	.cfi_offset 6, -16
	mov	rbp, rsp
	.cfi_def_cfa_register 6
	sub	rsp, 16
	mov	QWORD PTR -8[rbp], rdi
	.loc 4 506 56
	mov	rax, QWORD PTR -8[rbp]
	mov	rdi, rax
	call	_ZNSt14_Sp_ebo_helperILi0ESt17__sp_array_deleteLb1EE6_S_getERS1_
	.loc 4 506 65
	leave
	.cfi_def_cfa 7, 8
	ret
	.cfi_endproc
.LFE4147:
	.size	_ZNSt19_Sp_counted_deleterIPfSt17__sp_array_deleteSaIvELN9__gnu_cxx12_Lock_policyE2EE5_Impl6_M_delEv, .-_ZNSt19_Sp_counted_deleterIPfSt17__sp_array_deleteSaIvELN9__gnu_cxx12_Lock_policyE2EE5_Impl6_M_delEv
	.section	.text._ZNSt19_Sp_counted_deleterIPfSt17__sp_array_deleteSaIvELN9__gnu_cxx12_Lock_policyE2EE5_Impl8_M_allocEv,"axG",@progbits,_ZNSt19_Sp_counted_deleterIPfSt17__sp_array_deleteSaIvELN9__gnu_cxx12_Lock_policyE2EE5_Impl8_M_allocEv,comdat
	.align 2
	.weak	_ZNSt19_Sp_counted_deleterIPfSt17__sp_array_deleteSaIvELN9__gnu_cxx12_Lock_policyE2EE5_Impl8_M_allocEv
	.type	_ZNSt19_Sp_counted_deleterIPfSt17__sp_array_deleteSaIvELN9__gnu_cxx12_Lock_policyE2EE5_Impl8_M_allocEv, @function
_ZNSt19_Sp_counted_deleterIPfSt17__sp_array_deleteSaIvELN9__gnu_cxx12_Lock_policyE2EE5_Impl8_M_allocEv:
.LFB4148:
	.loc 4 507 10
	.cfi_startproc
	endbr64
	push	rbp
	.cfi_def_cfa_offset 16
	.cfi_offset 6, -16
	mov	rbp, rsp
	.cfi_def_cfa_register 6
	sub	rsp, 16
	mov	QWORD PTR -8[rbp], rdi
	.loc 4 507 58
	mov	rax, QWORD PTR -8[rbp]
	mov	rdi, rax
	call	_ZNSt14_Sp_ebo_helperILi1ESaIvELb1EE6_S_getERS1_
	.loc 4 507 67
	leave
	.cfi_def_cfa 7, 8
	ret
	.cfi_endproc
.LFE4148:
	.size	_ZNSt19_Sp_counted_deleterIPfSt17__sp_array_deleteSaIvELN9__gnu_cxx12_Lock_policyE2EE5_Impl8_M_allocEv, .-_ZNSt19_Sp_counted_deleterIPfSt17__sp_array_deleteSaIvELN9__gnu_cxx12_Lock_policyE2EE5_Impl8_M_allocEv
	.section	.text._ZSt11__addressofISt17__sp_array_deleteEPT_RS1_,"axG",@progbits,_ZSt11__addressofISt17__sp_array_deleteEPT_RS1_,comdat
	.weak	_ZSt11__addressofISt17__sp_array_deleteEPT_RS1_
	.type	_ZSt11__addressofISt17__sp_array_deleteEPT_RS1_, @function
_ZSt11__addressofISt17__sp_array_deleteEPT_RS1_:
.LFB4149:
	.loc 8 51 5
	.cfi_startproc
	endbr64
	push	rbp
	.cfi_def_cfa_offset 16
	.cfi_offset 6, -16
	mov	rbp, rsp
	.cfi_def_cfa_register 6
	mov	QWORD PTR -8[rbp], rdi
	.loc 8 52 37
	mov	rax, QWORD PTR -8[rbp]
	.loc 8 52 40
	pop	rbp
	.cfi_def_cfa 7, 8
	ret
	.cfi_endproc
.LFE4149:
	.size	_ZSt11__addressofISt17__sp_array_deleteEPT_RS1_, .-_ZSt11__addressofISt17__sp_array_deleteEPT_RS1_
	.section	.text._ZNSt14_Sp_ebo_helperILi0ESt17__sp_array_deleteLb1EE6_S_getERS1_,"axG",@progbits,_ZNSt14_Sp_ebo_helperILi0ESt17__sp_array_deleteLb1EE6_S_getERS1_,comdat
	.weak	_ZNSt14_Sp_ebo_helperILi0ESt17__sp_array_deleteLb1EE6_S_getERS1_
	.type	_ZNSt14_Sp_ebo_helperILi0ESt17__sp_array_deleteLb1EE6_S_getERS1_, @function
_ZNSt14_Sp_ebo_helperILi0ESt17__sp_array_deleteLb1EE6_S_getERS1_:
.LFB4150:
	.loc 4 474 7
	.cfi_startproc
	endbr64
	push	rbp
	.cfi_def_cfa_offset 16
	.cfi_offset 6, -16
	mov	rbp, rsp
	.cfi_def_cfa_register 6
	mov	QWORD PTR -8[rbp], rdi
	.loc 4 474 71
	mov	rax, QWORD PTR -8[rbp]
	.loc 4 474 74
	pop	rbp
	.cfi_def_cfa 7, 8
	ret
	.cfi_endproc
.LFE4150:
	.size	_ZNSt14_Sp_ebo_helperILi0ESt17__sp_array_deleteLb1EE6_S_getERS1_, .-_ZNSt14_Sp_ebo_helperILi0ESt17__sp_array_deleteLb1EE6_S_getERS1_
	.section	.text._ZNSt14_Sp_ebo_helperILi1ESaIvELb1EE6_S_getERS1_,"axG",@progbits,_ZNSt14_Sp_ebo_helperILi1ESaIvELb1EE6_S_getERS1_,comdat
	.weak	_ZNSt14_Sp_ebo_helperILi1ESaIvELb1EE6_S_getERS1_
	.type	_ZNSt14_Sp_ebo_helperILi1ESaIvELb1EE6_S_getERS1_, @function
_ZNSt14_Sp_ebo_helperILi1ESaIvELb1EE6_S_getERS1_:
.LFB4151:
	.loc 4 474 7
	.cfi_startproc
	endbr64
	push	rbp
	.cfi_def_cfa_offset 16
	.cfi_offset 6, -16
	mov	rbp, rsp
	.cfi_def_cfa_register 6
	mov	QWORD PTR -8[rbp], rdi
	.loc 4 474 71
	mov	rax, QWORD PTR -8[rbp]
	.loc 4 474 74
	pop	rbp
	.cfi_def_cfa 7, 8
	ret
	.cfi_endproc
.LFE4151:
	.size	_ZNSt14_Sp_ebo_helperILi1ESaIvELb1EE6_S_getERS1_, .-_ZNSt14_Sp_ebo_helperILi1ESaIvELb1EE6_S_getERS1_
	.weak	_ZTISt17__sp_array_delete
	.section	.data.rel.ro._ZTISt17__sp_array_delete,"awG",@progbits,_ZTISt17__sp_array_delete,comdat
	.align 8
	.type	_ZTISt17__sp_array_delete, @object
	.size	_ZTISt17__sp_array_delete, 16
_ZTISt17__sp_array_delete:
	.quad	_ZTVN10__cxxabiv117__class_type_infoE+16
	.quad	_ZTSSt17__sp_array_delete
	.weak	_ZTSSt17__sp_array_delete
	.section	.rodata._ZTSSt17__sp_array_delete,"aG",@progbits,_ZTSSt17__sp_array_delete,comdat
	.align 16
	.type	_ZTSSt17__sp_array_delete, @object
	.size	_ZTSSt17__sp_array_delete, 22
_ZTSSt17__sp_array_delete:
	.string	"St17__sp_array_delete"
	.weak	_ZTISt11_Mutex_baseILN9__gnu_cxx12_Lock_policyE2EE
	.section	.data.rel.ro._ZTISt11_Mutex_baseILN9__gnu_cxx12_Lock_policyE2EE,"awG",@progbits,_ZTISt11_Mutex_baseILN9__gnu_cxx12_Lock_policyE2EE,comdat
	.align 8
	.type	_ZTISt11_Mutex_baseILN9__gnu_cxx12_Lock_policyE2EE, @object
	.size	_ZTISt11_Mutex_baseILN9__gnu_cxx12_Lock_policyE2EE, 16
_ZTISt11_Mutex_baseILN9__gnu_cxx12_Lock_policyE2EE:
	.quad	_ZTVN10__cxxabiv117__class_type_infoE+16
	.quad	_ZTSSt11_Mutex_baseILN9__gnu_cxx12_Lock_policyE2EE
	.weak	_ZTSSt11_Mutex_baseILN9__gnu_cxx12_Lock_policyE2EE
	.section	.rodata._ZTSSt11_Mutex_baseILN9__gnu_cxx12_Lock_policyE2EE,"aG",@progbits,_ZTSSt11_Mutex_baseILN9__gnu_cxx12_Lock_policyE2EE,comdat
	.align 32
	.type	_ZTSSt11_Mutex_baseILN9__gnu_cxx12_Lock_policyE2EE, @object
	.size	_ZTSSt11_Mutex_baseILN9__gnu_cxx12_Lock_policyE2EE, 47
_ZTSSt11_Mutex_baseILN9__gnu_cxx12_Lock_policyE2EE:
	.string	"St11_Mutex_baseILN9__gnu_cxx12_Lock_policyE2EE"
	.weak	__cxa_pure_virtual
	.text
.Letext0:
	.file 14 "<built-in>"
	.file 15 "/usr/lib/gcc/x86_64-linux-gnu/13/include/stddef.h"
	.file 16 "/usr/include/x86_64-linux-gnu/bits/types/wint_t.h"
	.file 17 "/usr/include/x86_64-linux-gnu/bits/types/__mbstate_t.h"
	.file 18 "/usr/include/x86_64-linux-gnu/bits/types/mbstate_t.h"
	.file 19 "/usr/include/x86_64-linux-gnu/bits/types/__FILE.h"
	.file 20 "/usr/include/x86_64-linux-gnu/bits/types/struct_FILE.h"
	.file 21 "/usr/include/x86_64-linux-gnu/bits/types/FILE.h"
	.file 22 "/usr/include/c++/13/cwchar"
	.file 23 "/usr/include/c++/13/type_traits"
	.file 24 "/usr/include/c++/13/bits/exception_ptr.h"
	.file 25 "/usr/include/c++/13/concepts"
	.file 26 "/usr/include/c++/13/bits/iterator_concepts.h"
	.file 27 "/usr/include/c++/13/bits/ranges_cmp.h"
	.file 28 "/usr/include/c++/13/compare"
	.file 29 "/usr/include/c++/13/bits/charconv.h"
	.file 30 "/usr/include/c++/13/bits/char_traits.h"
	.file 31 "/usr/include/c++/13/clocale"
	.file 32 "/usr/include/c++/13/debug/debug.h"
	.file 33 "/usr/include/c++/13/numbers"
	.file 34 "/usr/include/c++/13/cstdlib"
	.file 35 "/usr/include/c++/13/cstdio"
	.file 36 "/usr/include/c++/13/cstddef"
	.file 37 "/usr/include/c++/13/cwctype"
	.file 38 "/usr/include/c++/13/bits/ostream.tcc"
	.file 39 "/usr/include/c++/13/ostream"
	.file 40 "/usr/include/c++/13/istream"
	.file 41 "/usr/include/c++/13/iosfwd"
	.file 42 "/usr/include/c++/13/iostream"
	.file 43 "/usr/include/c++/13/cstdint"
	.file 44 "/usr/include/c++/13/bits/functexcept.h"
	.file 45 "/usr/include/wchar.h"
	.file 46 "/usr/include/x86_64-linux-gnu/bits/types/struct_tm.h"
	.file 47 "/usr/include/c++/13/bits/predefined_ops.h"
	.file 48 "/usr/include/locale.h"
	.file 49 "/usr/include/x86_64-linux-gnu/bits/types.h"
	.file 50 "/usr/include/x86_64-linux-gnu/bits/types/time_t.h"
	.file 51 "/usr/include/x86_64-linux-gnu/c++/13/bits/atomic_word.h"
	.file 52 "/usr/include/stdlib.h"
	.file 53 "/usr/include/x86_64-linux-gnu/bits/stdint-intn.h"
	.file 54 "/usr/include/x86_64-linux-gnu/bits/types/__fpos_t.h"
	.file 55 "/usr/include/stdio.h"
	.file 56 "/usr/include/x86_64-linux-gnu/bits/wctype-wchar.h"
	.file 57 "/usr/include/wctype.h"
	.file 58 "/usr/include/x86_64-linux-gnu/bits/stdint-uintn.h"
	.file 59 "/usr/include/x86_64-linux-gnu/bits/stdint-least.h"
	.file 60 "/usr/include/stdint.h"
	.file 61 "/usr/include/c++/13/pstl/execution_defs.h"
	.file 62 "/usr/include/c++/13/system_error"
	.file 63 "/usr/include/time.h"
	.file 64 "/usr/include/x86_64-linux-gnu/sys/single_threaded.h"
	.file 65 "/usr/include/c++/13/bits/memory_resource.h"
	.file 66 "/usr/include/c++/13/ext/concurrence.h"
	.section	.data.rel.local.DW.ref.__gxx_personality_v0,"awG",@progbits,DW.ref.__gxx_personality_v0,comdat
	.align 8
	.type	DW.ref.__gxx_personality_v0, @object
	.size	DW.ref.__gxx_personality_v0, 8
DW.ref.__gxx_personality_v0:
	.quad	__gxx_personality_v0
	.ident	"GCC: (Ubuntu 13.2.0-23ubuntu4) 13.2.0"
	.section	.note.GNU-stack,"",@progbits
	.section	.note.gnu.property,"a"
	.align 8
	.long	1f - 0f
	.long	4f - 1f
	.long	5
0:
	.string	"GNU"
1:
	.align 8
	.long	0xc0000002
	.long	3f - 2f
2:
	.long	0x3
3:
	.align 8
4:
