	.file	"task_1_1.cpp"
	.intel_syntax noprefix
	.text
	.local	_ZStL8__ioinit
	.comm	_ZStL8__ioinit,1,1
	.section	.text._ZNKSt6chrono8durationIlSt5ratioILl1ELl1000000000EEE5countEv,"axG",@progbits,_ZNKSt6chrono8durationIlSt5ratioILl1ELl1000000000EEE5countEv,comdat
	.align 2
	.weak	_ZNKSt6chrono8durationIlSt5ratioILl1ELl1000000000EEE5countEv
	.type	_ZNKSt6chrono8durationIlSt5ratioILl1ELl1000000000EEE5countEv, @function
_ZNKSt6chrono8durationIlSt5ratioILl1ELl1000000000EEE5countEv:
.LFB2549:
	.cfi_startproc
	endbr64
	push	rbp
	.cfi_def_cfa_offset 16
	.cfi_offset 6, -16
	mov	rbp, rsp
	.cfi_def_cfa_register 6
	mov	QWORD PTR -8[rbp], rdi
	mov	rax, QWORD PTR -8[rbp]
	mov	rax, QWORD PTR [rax]
	pop	rbp
	.cfi_def_cfa 7, 8
	ret
	.cfi_endproc
.LFE2549:
	.size	_ZNKSt6chrono8durationIlSt5ratioILl1ELl1000000000EEE5countEv, .-_ZNKSt6chrono8durationIlSt5ratioILl1ELl1000000000EEE5countEv
	.section	.text._ZNSt6chrono8durationIlSt5ratioILl1ELl1000000000EEEC1IlvEERKT_,"axG",@progbits,_ZNSt6chrono8durationIlSt5ratioILl1ELl1000000000EEEC1IlvEERKT_,comdat
	.align 2
	.weak	_ZNSt6chrono8durationIlSt5ratioILl1ELl1000000000EEEC1IlvEERKT_
	.type	_ZNSt6chrono8durationIlSt5ratioILl1ELl1000000000EEEC1IlvEERKT_, @function
_ZNSt6chrono8durationIlSt5ratioILl1ELl1000000000EEEC1IlvEERKT_:
.LFB2554:
	.cfi_startproc
	endbr64
	push	rbp
	.cfi_def_cfa_offset 16
	.cfi_offset 6, -16
	mov	rbp, rsp
	.cfi_def_cfa_register 6
	mov	QWORD PTR -8[rbp], rdi
	mov	QWORD PTR -16[rbp], rsi
	mov	rax, QWORD PTR -16[rbp]
	mov	rdx, QWORD PTR [rax]
	mov	rax, QWORD PTR -8[rbp]
	mov	QWORD PTR [rax], rdx
	nop
	pop	rbp
	.cfi_def_cfa 7, 8
	ret
	.cfi_endproc
.LFE2554:
	.size	_ZNSt6chrono8durationIlSt5ratioILl1ELl1000000000EEEC1IlvEERKT_, .-_ZNSt6chrono8durationIlSt5ratioILl1ELl1000000000EEEC1IlvEERKT_
	.section	.text._ZNSt6chrono13duration_castINS_8durationIlSt5ratioILl1ELl1000000EEEElS2_ILl1ELl1000000000EEEENSt9enable_ifIXsrNS_13__is_durationIT_EE5valueES8_E4typeERKNS1_IT0_T1_EE,"axG",@progbits,_ZNSt6chrono13duration_castINS_8durationIlSt5ratioILl1ELl1000000EEEElS2_ILl1ELl1000000000EEEENSt9enable_ifIXsrNS_13__is_durationIT_EE5valueES8_E4typeERKNS1_IT0_T1_EE,comdat
	.weak	_ZNSt6chrono13duration_castINS_8durationIlSt5ratioILl1ELl1000000EEEElS2_ILl1ELl1000000000EEEENSt9enable_ifIXsrNS_13__is_durationIT_EE5valueES8_E4typeERKNS1_IT0_T1_EE
	.type	_ZNSt6chrono13duration_castINS_8durationIlSt5ratioILl1ELl1000000EEEElS2_ILl1ELl1000000000EEEENSt9enable_ifIXsrNS_13__is_durationIT_EE5valueES8_E4typeERKNS1_IT0_T1_EE, @function
_ZNSt6chrono13duration_castINS_8durationIlSt5ratioILl1ELl1000000EEEElS2_ILl1ELl1000000000EEEENSt9enable_ifIXsrNS_13__is_durationIT_EE5valueES8_E4typeERKNS1_IT0_T1_EE:
.LFB3582:
	.cfi_startproc
	endbr64
	push	rbp
	.cfi_def_cfa_offset 16
	.cfi_offset 6, -16
	mov	rbp, rsp
	.cfi_def_cfa_register 6
	sub	rsp, 16
	mov	QWORD PTR -8[rbp], rdi
	mov	rax, QWORD PTR -8[rbp]
	mov	rdi, rax
	call	_ZNSt6chrono20__duration_cast_implINS_8durationIlSt5ratioILl1ELl1000000EEEES2_ILl1ELl1000EElLb1ELb0EE6__castIlS2_ILl1ELl1000000000EEEES4_RKNS1_IT_T0_EE
	leave
	.cfi_def_cfa 7, 8
	ret
	.cfi_endproc
.LFE3582:
	.size	_ZNSt6chrono13duration_castINS_8durationIlSt5ratioILl1ELl1000000EEEElS2_ILl1ELl1000000000EEEENSt9enable_ifIXsrNS_13__is_durationIT_EE5valueES8_E4typeERKNS1_IT0_T1_EE, .-_ZNSt6chrono13duration_castINS_8durationIlSt5ratioILl1ELl1000000EEEElS2_ILl1ELl1000000000EEEENSt9enable_ifIXsrNS_13__is_durationIT_EE5valueES8_E4typeERKNS1_IT0_T1_EE
	.section	.text._ZNSt6chronomiINS_3_V212system_clockENS_8durationIlSt5ratioILl1ELl1000000000EEEES6_EENSt11common_typeIJT0_T1_EE4typeERKNS_10time_pointIT_S8_EERKNSC_ISD_S9_EE,"axG",@progbits,_ZNSt6chronomiINS_3_V212system_clockENS_8durationIlSt5ratioILl1ELl1000000000EEEES6_EENSt11common_typeIJT0_T1_EE4typeERKNS_10time_pointIT_S8_EERKNSC_ISD_S9_EE,comdat
	.weak	_ZNSt6chronomiINS_3_V212system_clockENS_8durationIlSt5ratioILl1ELl1000000000EEEES6_EENSt11common_typeIJT0_T1_EE4typeERKNS_10time_pointIT_S8_EERKNSC_ISD_S9_EE
	.type	_ZNSt6chronomiINS_3_V212system_clockENS_8durationIlSt5ratioILl1ELl1000000000EEEES6_EENSt11common_typeIJT0_T1_EE4typeERKNS_10time_pointIT_S8_EERKNSC_ISD_S9_EE, @function
_ZNSt6chronomiINS_3_V212system_clockENS_8durationIlSt5ratioILl1ELl1000000000EEEES6_EENSt11common_typeIJT0_T1_EE4typeERKNS_10time_pointIT_S8_EERKNSC_ISD_S9_EE:
.LFB3583:
	.cfi_startproc
	endbr64
	push	rbp
	.cfi_def_cfa_offset 16
	.cfi_offset 6, -16
	mov	rbp, rsp
	.cfi_def_cfa_register 6
	sub	rsp, 48
	mov	QWORD PTR -40[rbp], rdi
	mov	QWORD PTR -48[rbp], rsi
	mov	rax, QWORD PTR fs:40
	mov	QWORD PTR -8[rbp], rax
	xor	eax, eax
	mov	rax, QWORD PTR -48[rbp]
	mov	rdi, rax
	call	_ZNKSt6chrono10time_pointINS_3_V212system_clockENS_8durationIlSt5ratioILl1ELl1000000000EEEEE16time_since_epochEv
	mov	QWORD PTR -16[rbp], rax
	mov	rax, QWORD PTR -40[rbp]
	mov	rdi, rax
	call	_ZNKSt6chrono10time_pointINS_3_V212system_clockENS_8durationIlSt5ratioILl1ELl1000000000EEEEE16time_since_epochEv
	mov	QWORD PTR -24[rbp], rax
	lea	rdx, -16[rbp]
	lea	rax, -24[rbp]
	mov	rsi, rdx
	mov	rdi, rax
	call	_ZNSt6chronomiIlSt5ratioILl1ELl1000000000EElS2_EENSt11common_typeIJNS_8durationIT_T0_EENS4_IT1_T2_EEEE4typeERKS7_RKSA_
	mov	rdx, QWORD PTR -8[rbp]
	sub	rdx, QWORD PTR fs:40
	je	.L8
	call	__stack_chk_fail@PLT
.L8:
	leave
	.cfi_def_cfa 7, 8
	ret
	.cfi_endproc
.LFE3583:
	.size	_ZNSt6chronomiINS_3_V212system_clockENS_8durationIlSt5ratioILl1ELl1000000000EEEES6_EENSt11common_typeIJT0_T1_EE4typeERKNS_10time_pointIT_S8_EERKNSC_ISD_S9_EE, .-_ZNSt6chronomiINS_3_V212system_clockENS_8durationIlSt5ratioILl1ELl1000000000EEEES6_EENSt11common_typeIJT0_T1_EE4typeERKNS_10time_pointIT_S8_EERKNSC_ISD_S9_EE
	.section	.text._ZNSt6chronomiIlSt5ratioILl1ELl1000000000EElS2_EENSt11common_typeIJNS_8durationIT_T0_EENS4_IT1_T2_EEEE4typeERKS7_RKSA_,"axG",@progbits,_ZNSt6chronomiIlSt5ratioILl1ELl1000000000EElS2_EENSt11common_typeIJNS_8durationIT_T0_EENS4_IT1_T2_EEEE4typeERKS7_RKSA_,comdat
	.weak	_ZNSt6chronomiIlSt5ratioILl1ELl1000000000EElS2_EENSt11common_typeIJNS_8durationIT_T0_EENS4_IT1_T2_EEEE4typeERKS7_RKSA_
	.type	_ZNSt6chronomiIlSt5ratioILl1ELl1000000000EElS2_EENSt11common_typeIJNS_8durationIT_T0_EENS4_IT1_T2_EEEE4typeERKS7_RKSA_, @function
_ZNSt6chronomiIlSt5ratioILl1ELl1000000000EElS2_EENSt11common_typeIJNS_8durationIT_T0_EENS4_IT1_T2_EEEE4typeERKS7_RKSA_:
.LFB3584:
	.cfi_startproc
	endbr64
	push	rbp
	.cfi_def_cfa_offset 16
	.cfi_offset 6, -16
	mov	rbp, rsp
	.cfi_def_cfa_register 6
	push	rbx
	sub	rsp, 72
	.cfi_offset 3, -24
	mov	QWORD PTR -72[rbp], rdi
	mov	QWORD PTR -80[rbp], rsi
	mov	rax, QWORD PTR fs:40
	mov	QWORD PTR -24[rbp], rax
	xor	eax, eax
	mov	rax, QWORD PTR -72[rbp]
	mov	rax, QWORD PTR [rax]
	mov	QWORD PTR -56[rbp], rax
	lea	rax, -56[rbp]
	mov	rdi, rax
	call	_ZNKSt6chrono8durationIlSt5ratioILl1ELl1000000000EEE5countEv
	mov	rbx, rax
	mov	rax, QWORD PTR -80[rbp]
	mov	rax, QWORD PTR [rax]
	mov	QWORD PTR -48[rbp], rax
	lea	rax, -48[rbp]
	mov	rdi, rax
	call	_ZNKSt6chrono8durationIlSt5ratioILl1ELl1000000000EEE5countEv
	mov	rdx, rax
	mov	rax, rbx
	sub	rax, rdx
	mov	QWORD PTR -40[rbp], rax
	lea	rdx, -40[rbp]
	lea	rax, -32[rbp]
	mov	rsi, rdx
	mov	rdi, rax
	call	_ZNSt6chrono8durationIlSt5ratioILl1ELl1000000000EEEC1IlvEERKT_
	mov	rax, QWORD PTR -32[rbp]
	mov	rdx, QWORD PTR -24[rbp]
	sub	rdx, QWORD PTR fs:40
	je	.L11
	call	__stack_chk_fail@PLT
.L11:
	mov	rbx, QWORD PTR -8[rbp]
	leave
	.cfi_def_cfa 7, 8
	ret
	.cfi_endproc
.LFE3584:
	.size	_ZNSt6chronomiIlSt5ratioILl1ELl1000000000EElS2_EENSt11common_typeIJNS_8durationIT_T0_EENS4_IT1_T2_EEEE4typeERKS7_RKSA_, .-_ZNSt6chronomiIlSt5ratioILl1ELl1000000000EElS2_EENSt11common_typeIJNS_8durationIT_T0_EENS4_IT1_T2_EEEE4typeERKS7_RKSA_
	.section	.text._ZNKSt6chrono10time_pointINS_3_V212system_clockENS_8durationIlSt5ratioILl1ELl1000000000EEEEE16time_since_epochEv,"axG",@progbits,_ZNKSt6chrono10time_pointINS_3_V212system_clockENS_8durationIlSt5ratioILl1ELl1000000000EEEEE16time_since_epochEv,comdat
	.align 2
	.weak	_ZNKSt6chrono10time_pointINS_3_V212system_clockENS_8durationIlSt5ratioILl1ELl1000000000EEEEE16time_since_epochEv
	.type	_ZNKSt6chrono10time_pointINS_3_V212system_clockENS_8durationIlSt5ratioILl1ELl1000000000EEEEE16time_since_epochEv, @function
_ZNKSt6chrono10time_pointINS_3_V212system_clockENS_8durationIlSt5ratioILl1ELl1000000000EEEEE16time_since_epochEv:
.LFB3585:
	.cfi_startproc
	endbr64
	push	rbp
	.cfi_def_cfa_offset 16
	.cfi_offset 6, -16
	mov	rbp, rsp
	.cfi_def_cfa_register 6
	mov	QWORD PTR -8[rbp], rdi
	mov	rax, QWORD PTR -8[rbp]
	mov	rax, QWORD PTR [rax]
	pop	rbp
	.cfi_def_cfa 7, 8
	ret
	.cfi_endproc
.LFE3585:
	.size	_ZNKSt6chrono10time_pointINS_3_V212system_clockENS_8durationIlSt5ratioILl1ELl1000000000EEEEE16time_since_epochEv, .-_ZNKSt6chrono10time_pointINS_3_V212system_clockENS_8durationIlSt5ratioILl1ELl1000000000EEEEE16time_since_epochEv
	.text
	.globl	_Z11mult_doubledd
	.type	_Z11mult_doubledd, @function
_Z11mult_doubledd:
.LFB3581:
	.cfi_startproc
	endbr64
	push	rbp
	.cfi_def_cfa_offset 16
	.cfi_offset 6, -16
	mov	rbp, rsp
	.cfi_def_cfa_register 6
	sub	rsp, 64
	movsd	QWORD PTR -56[rbp], xmm0
	movsd	QWORD PTR -64[rbp], xmm1
	mov	rax, QWORD PTR fs:40
	mov	QWORD PTR -8[rbp], rax
	xor	eax, eax
	call	_ZNSt6chrono3_V212system_clock3nowEv@PLT
	mov	QWORD PTR -48[rbp], rax
	movsd	xmm0, QWORD PTR -56[rbp]
	mulsd	xmm0, QWORD PTR -64[rbp]
	movsd	QWORD PTR -16[rbp], xmm0
	call	_ZNSt6chrono3_V212system_clock3nowEv@PLT
	mov	QWORD PTR -40[rbp], rax
	lea	rdx, -48[rbp]
	lea	rax, -40[rbp]
	mov	rsi, rdx
	mov	rdi, rax
	call	_ZNSt6chronomiINS_3_V212system_clockENS_8durationIlSt5ratioILl1ELl1000000000EEEES6_EENSt11common_typeIJT0_T1_EE4typeERKNS_10time_pointIT_S8_EERKNSC_ISD_S9_EE
	mov	QWORD PTR -24[rbp], rax
	lea	rax, -24[rbp]
	mov	rdi, rax
	call	_ZNSt6chrono13duration_castINS_8durationIlSt5ratioILl1ELl1000000EEEElS2_ILl1ELl1000000000EEEENSt9enable_ifIXsrNS_13__is_durationIT_EE5valueES8_E4typeERKNS1_IT0_T1_EE
	mov	QWORD PTR -32[rbp], rax
	lea	rax, -32[rbp]
	mov	rdi, rax
	call	_ZNKSt6chrono8durationIlSt5ratioILl1ELl1000000EEE5countEv
	pxor	xmm0, xmm0
	cvtsi2sd	xmm0, rax
	movq	rax, xmm0
	mov	rdx, QWORD PTR -8[rbp]
	sub	rdx, QWORD PTR fs:40
	je	.L16
	call	__stack_chk_fail@PLT
.L16:
	movq	xmm0, rax
	leave
	.cfi_def_cfa 7, 8
	ret
	.cfi_endproc
.LFE3581:
	.size	_Z11mult_doubledd, .-_Z11mult_doubledd
	.globl	_Z15mult_double_asmdd
	.type	_Z15mult_double_asmdd, @function
_Z15mult_double_asmdd:
.LFB3586:
	.cfi_startproc
	endbr64
	push	rbp
	.cfi_def_cfa_offset 16
	.cfi_offset 6, -16
	mov	rbp, rsp
	.cfi_def_cfa_register 6
	sub	rsp, 64
	movsd	QWORD PTR -56[rbp], xmm0
	movsd	QWORD PTR -64[rbp], xmm1
	mov	rax, QWORD PTR fs:40
	mov	QWORD PTR -8[rbp], rax
	xor	eax, eax
	call	_ZNSt6chrono3_V212system_clock3nowEv@PLT
	mov	QWORD PTR -48[rbp], rax
#APP
# 21 "task_1_1.cpp" 1
	fld QWORD PTR -56[rbp]
	fld QWORD PTR -64[rbp]
	fmulp
	fstp QWORD PTR -40[rbp]
	
# 0 "" 2
#NO_APP
	call	_ZNSt6chrono3_V212system_clock3nowEv@PLT
	mov	QWORD PTR -32[rbp], rax
	lea	rdx, -48[rbp]
	lea	rax, -32[rbp]
	mov	rsi, rdx
	mov	rdi, rax
	call	_ZNSt6chronomiINS_3_V212system_clockENS_8durationIlSt5ratioILl1ELl1000000000EEEES6_EENSt11common_typeIJT0_T1_EE4typeERKNS_10time_pointIT_S8_EERKNSC_ISD_S9_EE
	mov	QWORD PTR -16[rbp], rax
	lea	rax, -16[rbp]
	mov	rdi, rax
	call	_ZNSt6chrono13duration_castINS_8durationIlSt5ratioILl1ELl1000000EEEElS2_ILl1ELl1000000000EEEENSt9enable_ifIXsrNS_13__is_durationIT_EE5valueES8_E4typeERKNS1_IT0_T1_EE
	mov	QWORD PTR -24[rbp], rax
	lea	rax, -24[rbp]
	mov	rdi, rax
	call	_ZNKSt6chrono8durationIlSt5ratioILl1ELl1000000EEE5countEv
	pxor	xmm0, xmm0
	cvtsi2sd	xmm0, rax
	movq	rax, xmm0
	mov	rdx, QWORD PTR -8[rbp]
	sub	rdx, QWORD PTR fs:40
	je	.L19
	call	__stack_chk_fail@PLT
.L19:
	movq	xmm0, rax
	leave
	.cfi_def_cfa 7, 8
	ret
	.cfi_endproc
.LFE3586:
	.size	_Z15mult_double_asmdd, .-_Z15mult_double_asmdd
	.section	.text._ZNKSt6chrono8durationIlSt5ratioILl1ELl1000000EEE5countEv,"axG",@progbits,_ZNKSt6chrono8durationIlSt5ratioILl1ELl1000000EEE5countEv,comdat
	.align 2
	.weak	_ZNKSt6chrono8durationIlSt5ratioILl1ELl1000000EEE5countEv
	.type	_ZNKSt6chrono8durationIlSt5ratioILl1ELl1000000EEE5countEv, @function
_ZNKSt6chrono8durationIlSt5ratioILl1ELl1000000EEE5countEv:
.LFB3588:
	.cfi_startproc
	endbr64
	push	rbp
	.cfi_def_cfa_offset 16
	.cfi_offset 6, -16
	mov	rbp, rsp
	.cfi_def_cfa_register 6
	mov	QWORD PTR -8[rbp], rdi
	mov	rax, QWORD PTR -8[rbp]
	mov	rax, QWORD PTR [rax]
	pop	rbp
	.cfi_def_cfa 7, 8
	ret
	.cfi_endproc
.LFE3588:
	.size	_ZNKSt6chrono8durationIlSt5ratioILl1ELl1000000EEE5countEv, .-_ZNKSt6chrono8durationIlSt5ratioILl1ELl1000000EEE5countEv
	.text
	.globl	_Z10mult_floatff
	.type	_Z10mult_floatff, @function
_Z10mult_floatff:
.LFB3587:
	.cfi_startproc
	endbr64
	push	rbp
	.cfi_def_cfa_offset 16
	.cfi_offset 6, -16
	mov	rbp, rsp
	.cfi_def_cfa_register 6
	sub	rsp, 64
	movss	DWORD PTR -52[rbp], xmm0
	movss	DWORD PTR -56[rbp], xmm1
	mov	rax, QWORD PTR fs:40
	mov	QWORD PTR -8[rbp], rax
	xor	eax, eax
	call	_ZNSt6chrono3_V212system_clock3nowEv@PLT
	mov	QWORD PTR -40[rbp], rax
	movss	xmm0, DWORD PTR -52[rbp]
	mulss	xmm0, DWORD PTR -56[rbp]
	movss	DWORD PTR -44[rbp], xmm0
	call	_ZNSt6chrono3_V212system_clock3nowEv@PLT
	mov	QWORD PTR -32[rbp], rax
	lea	rdx, -40[rbp]
	lea	rax, -32[rbp]
	mov	rsi, rdx
	mov	rdi, rax
	call	_ZNSt6chronomiINS_3_V212system_clockENS_8durationIlSt5ratioILl1ELl1000000000EEEES6_EENSt11common_typeIJT0_T1_EE4typeERKNS_10time_pointIT_S8_EERKNSC_ISD_S9_EE
	mov	QWORD PTR -16[rbp], rax
	lea	rax, -16[rbp]
	mov	rdi, rax
	call	_ZNSt6chrono13duration_castINS_8durationIlSt5ratioILl1ELl1000000EEEElS2_ILl1ELl1000000000EEEENSt9enable_ifIXsrNS_13__is_durationIT_EE5valueES8_E4typeERKNS1_IT0_T1_EE
	mov	QWORD PTR -24[rbp], rax
	lea	rax, -24[rbp]
	mov	rdi, rax
	call	_ZNKSt6chrono8durationIlSt5ratioILl1ELl1000000EEE5countEv
	pxor	xmm0, xmm0
	cvtsi2sd	xmm0, rax
	cvtsd2ss	xmm0, xmm0
	mov	rax, QWORD PTR -8[rbp]
	sub	rax, QWORD PTR fs:40
	je	.L24
	call	__stack_chk_fail@PLT
.L24:
	leave
	.cfi_def_cfa 7, 8
	ret
	.cfi_endproc
.LFE3587:
	.size	_Z10mult_floatff, .-_Z10mult_floatff
	.globl	_Z14mult_float_asmff
	.type	_Z14mult_float_asmff, @function
_Z14mult_float_asmff:
.LFB3589:
	.cfi_startproc
	endbr64
	push	rbp
	.cfi_def_cfa_offset 16
	.cfi_offset 6, -16
	mov	rbp, rsp
	.cfi_def_cfa_register 6
	sub	rsp, 64
	movss	DWORD PTR -52[rbp], xmm0
	movss	DWORD PTR -56[rbp], xmm1
	mov	rax, QWORD PTR fs:40
	mov	QWORD PTR -8[rbp], rax
	xor	eax, eax
	call	_ZNSt6chrono3_V212system_clock3nowEv@PLT
	mov	QWORD PTR -40[rbp], rax
#APP
# 48 "task_1_1.cpp" 1
	fld DWORD PTR -52[rbp]
	fld DWORD PTR -56[rbp]
	fmulp
	fstp DWORD PTR -44[rbp]
	
# 0 "" 2
#NO_APP
	call	_ZNSt6chrono3_V212system_clock3nowEv@PLT
	mov	QWORD PTR -32[rbp], rax
	lea	rdx, -40[rbp]
	lea	rax, -32[rbp]
	mov	rsi, rdx
	mov	rdi, rax
	call	_ZNSt6chronomiINS_3_V212system_clockENS_8durationIlSt5ratioILl1ELl1000000000EEEES6_EENSt11common_typeIJT0_T1_EE4typeERKNS_10time_pointIT_S8_EERKNSC_ISD_S9_EE
	mov	QWORD PTR -16[rbp], rax
	lea	rax, -16[rbp]
	mov	rdi, rax
	call	_ZNSt6chrono13duration_castINS_8durationIlSt5ratioILl1ELl1000000EEEElS2_ILl1ELl1000000000EEEENSt9enable_ifIXsrNS_13__is_durationIT_EE5valueES8_E4typeERKNS1_IT0_T1_EE
	mov	QWORD PTR -24[rbp], rax
	lea	rax, -24[rbp]
	mov	rdi, rax
	call	_ZNKSt6chrono8durationIlSt5ratioILl1ELl1000000EEE5countEv
	pxor	xmm0, xmm0
	cvtsi2sd	xmm0, rax
	cvtsd2ss	xmm0, xmm0
	mov	rax, QWORD PTR -8[rbp]
	sub	rax, QWORD PTR fs:40
	je	.L27
	call	__stack_chk_fail@PLT
.L27:
	leave
	.cfi_def_cfa 7, 8
	ret
	.cfi_endproc
.LFE3589:
	.size	_Z14mult_float_asmff, .-_Z14mult_float_asmff
	.globl	_Z9add_floatdd
	.type	_Z9add_floatdd, @function
_Z9add_floatdd:
.LFB3590:
	.cfi_startproc
	endbr64
	push	rbp
	.cfi_def_cfa_offset 16
	.cfi_offset 6, -16
	mov	rbp, rsp
	.cfi_def_cfa_register 6
	sub	rsp, 64
	movsd	QWORD PTR -56[rbp], xmm0
	movsd	QWORD PTR -64[rbp], xmm1
	mov	rax, QWORD PTR fs:40
	mov	QWORD PTR -8[rbp], rax
	xor	eax, eax
	call	_ZNSt6chrono3_V212system_clock3nowEv@PLT
	mov	QWORD PTR -48[rbp], rax
	movsd	xmm0, QWORD PTR -56[rbp]
	addsd	xmm0, QWORD PTR -64[rbp]
	movsd	QWORD PTR -16[rbp], xmm0
	call	_ZNSt6chrono3_V212system_clock3nowEv@PLT
	mov	QWORD PTR -40[rbp], rax
	lea	rdx, -48[rbp]
	lea	rax, -40[rbp]
	mov	rsi, rdx
	mov	rdi, rax
	call	_ZNSt6chronomiINS_3_V212system_clockENS_8durationIlSt5ratioILl1ELl1000000000EEEES6_EENSt11common_typeIJT0_T1_EE4typeERKNS_10time_pointIT_S8_EERKNSC_ISD_S9_EE
	mov	QWORD PTR -24[rbp], rax
	lea	rax, -24[rbp]
	mov	rdi, rax
	call	_ZNSt6chrono13duration_castINS_8durationIlSt5ratioILl1ELl1000000EEEElS2_ILl1ELl1000000000EEEENSt9enable_ifIXsrNS_13__is_durationIT_EE5valueES8_E4typeERKNS1_IT0_T1_EE
	mov	QWORD PTR -32[rbp], rax
	lea	rax, -32[rbp]
	mov	rdi, rax
	call	_ZNKSt6chrono8durationIlSt5ratioILl1ELl1000000EEE5countEv
	pxor	xmm0, xmm0
	cvtsi2sd	xmm0, rax
	movq	rax, xmm0
	mov	rdx, QWORD PTR -8[rbp]
	sub	rdx, QWORD PTR fs:40
	je	.L30
	call	__stack_chk_fail@PLT
.L30:
	movq	xmm0, rax
	leave
	.cfi_def_cfa 7, 8
	ret
	.cfi_endproc
.LFE3590:
	.size	_Z9add_floatdd, .-_Z9add_floatdd
	.globl	_Z13add_float_asmff
	.type	_Z13add_float_asmff, @function
_Z13add_float_asmff:
.LFB3591:
	.cfi_startproc
	endbr64
	push	rbp
	.cfi_def_cfa_offset 16
	.cfi_offset 6, -16
	mov	rbp, rsp
	.cfi_def_cfa_register 6
	sub	rsp, 64
	movss	DWORD PTR -52[rbp], xmm0
	movss	DWORD PTR -56[rbp], xmm1
	mov	rax, QWORD PTR fs:40
	mov	QWORD PTR -8[rbp], rax
	xor	eax, eax
	call	_ZNSt6chrono3_V212system_clock3nowEv@PLT
	mov	QWORD PTR -40[rbp], rax
#APP
# 75 "task_1_1.cpp" 1
	fld DWORD PTR -52[rbp]
	fld DWORD PTR -56[rbp]
	faddp
	fstp DWORD PTR -44[rbp]
	
# 0 "" 2
#NO_APP
	call	_ZNSt6chrono3_V212system_clock3nowEv@PLT
	mov	QWORD PTR -32[rbp], rax
	lea	rdx, -40[rbp]
	lea	rax, -32[rbp]
	mov	rsi, rdx
	mov	rdi, rax
	call	_ZNSt6chronomiINS_3_V212system_clockENS_8durationIlSt5ratioILl1ELl1000000000EEEES6_EENSt11common_typeIJT0_T1_EE4typeERKNS_10time_pointIT_S8_EERKNSC_ISD_S9_EE
	mov	QWORD PTR -16[rbp], rax
	lea	rax, -16[rbp]
	mov	rdi, rax
	call	_ZNSt6chrono13duration_castINS_8durationIlSt5ratioILl1ELl1000000EEEElS2_ILl1ELl1000000000EEEENSt9enable_ifIXsrNS_13__is_durationIT_EE5valueES8_E4typeERKNS1_IT0_T1_EE
	mov	QWORD PTR -24[rbp], rax
	lea	rax, -24[rbp]
	mov	rdi, rax
	call	_ZNKSt6chrono8durationIlSt5ratioILl1ELl1000000EEE5countEv
	pxor	xmm0, xmm0
	cvtsi2sd	xmm0, rax
	cvtsd2ss	xmm0, xmm0
	mov	rax, QWORD PTR -8[rbp]
	sub	rax, QWORD PTR fs:40
	je	.L33
	call	__stack_chk_fail@PLT
.L33:
	leave
	.cfi_def_cfa 7, 8
	ret
	.cfi_endproc
.LFE3591:
	.size	_Z13add_float_asmff, .-_Z13add_float_asmff
	.globl	_Z10add_doubledd
	.type	_Z10add_doubledd, @function
_Z10add_doubledd:
.LFB3592:
	.cfi_startproc
	endbr64
	push	rbp
	.cfi_def_cfa_offset 16
	.cfi_offset 6, -16
	mov	rbp, rsp
	.cfi_def_cfa_register 6
	sub	rsp, 64
	movsd	QWORD PTR -56[rbp], xmm0
	movsd	QWORD PTR -64[rbp], xmm1
	mov	rax, QWORD PTR fs:40
	mov	QWORD PTR -8[rbp], rax
	xor	eax, eax
	call	_ZNSt6chrono3_V212system_clock3nowEv@PLT
	mov	QWORD PTR -48[rbp], rax
	movsd	xmm0, QWORD PTR -56[rbp]
	addsd	xmm0, QWORD PTR -64[rbp]
	movsd	QWORD PTR -16[rbp], xmm0
	call	_ZNSt6chrono3_V212system_clock3nowEv@PLT
	mov	QWORD PTR -40[rbp], rax
	lea	rdx, -48[rbp]
	lea	rax, -40[rbp]
	mov	rsi, rdx
	mov	rdi, rax
	call	_ZNSt6chronomiINS_3_V212system_clockENS_8durationIlSt5ratioILl1ELl1000000000EEEES6_EENSt11common_typeIJT0_T1_EE4typeERKNS_10time_pointIT_S8_EERKNSC_ISD_S9_EE
	mov	QWORD PTR -24[rbp], rax
	lea	rax, -24[rbp]
	mov	rdi, rax
	call	_ZNSt6chrono13duration_castINS_8durationIlSt5ratioILl1ELl1000000EEEElS2_ILl1ELl1000000000EEEENSt9enable_ifIXsrNS_13__is_durationIT_EE5valueES8_E4typeERKNS1_IT0_T1_EE
	mov	QWORD PTR -32[rbp], rax
	lea	rax, -32[rbp]
	mov	rdi, rax
	call	_ZNKSt6chrono8durationIlSt5ratioILl1ELl1000000EEE5countEv
	pxor	xmm0, xmm0
	cvtsi2sd	xmm0, rax
	movq	rax, xmm0
	mov	rdx, QWORD PTR -8[rbp]
	sub	rdx, QWORD PTR fs:40
	je	.L36
	call	__stack_chk_fail@PLT
.L36:
	movq	xmm0, rax
	leave
	.cfi_def_cfa 7, 8
	ret
	.cfi_endproc
.LFE3592:
	.size	_Z10add_doubledd, .-_Z10add_doubledd
	.globl	_Z14add_double_asmdd
	.type	_Z14add_double_asmdd, @function
_Z14add_double_asmdd:
.LFB3593:
	.cfi_startproc
	endbr64
	push	rbp
	.cfi_def_cfa_offset 16
	.cfi_offset 6, -16
	mov	rbp, rsp
	.cfi_def_cfa_register 6
	sub	rsp, 64
	movsd	QWORD PTR -56[rbp], xmm0
	movsd	QWORD PTR -64[rbp], xmm1
	mov	rax, QWORD PTR fs:40
	mov	QWORD PTR -8[rbp], rax
	xor	eax, eax
	call	_ZNSt6chrono3_V212system_clock3nowEv@PLT
	mov	QWORD PTR -48[rbp], rax
#APP
# 101 "task_1_1.cpp" 1
	fld QWORD PTR -56[rbp]
	fld QWORD PTR -64[rbp]
	faddp
	fstp QWORD PTR -40[rbp]
	
# 0 "" 2
#NO_APP
	call	_ZNSt6chrono3_V212system_clock3nowEv@PLT
	mov	QWORD PTR -32[rbp], rax
	lea	rdx, -48[rbp]
	lea	rax, -32[rbp]
	mov	rsi, rdx
	mov	rdi, rax
	call	_ZNSt6chronomiINS_3_V212system_clockENS_8durationIlSt5ratioILl1ELl1000000000EEEES6_EENSt11common_typeIJT0_T1_EE4typeERKNS_10time_pointIT_S8_EERKNSC_ISD_S9_EE
	mov	QWORD PTR -16[rbp], rax
	lea	rax, -16[rbp]
	mov	rdi, rax
	call	_ZNSt6chrono13duration_castINS_8durationIlSt5ratioILl1ELl1000000EEEElS2_ILl1ELl1000000000EEEENSt9enable_ifIXsrNS_13__is_durationIT_EE5valueES8_E4typeERKNS1_IT0_T1_EE
	mov	QWORD PTR -24[rbp], rax
	lea	rax, -24[rbp]
	mov	rdi, rax
	call	_ZNKSt6chrono8durationIlSt5ratioILl1ELl1000000EEE5countEv
	pxor	xmm0, xmm0
	cvtsi2sd	xmm0, rax
	movq	rax, xmm0
	mov	rdx, QWORD PTR -8[rbp]
	sub	rdx, QWORD PTR fs:40
	je	.L39
	call	__stack_chk_fail@PLT
.L39:
	movq	xmm0, rax
	leave
	.cfi_def_cfa 7, 8
	ret
	.cfi_endproc
.LFE3593:
	.size	_Z14add_double_asmdd, .-_Z14add_double_asmdd
	.section	.rodata
.LC3:
	.string	"double *: "
.LC5:
	.string	" \320\274\320\270\320\272\321\200\320\276\321\201\320\265\320\272\321\203\320\275\320\264"
.LC6:
	.string	"asm double *: "
.LC9:
	.string	"float *: "
.LC10:
	.string	"asm float *: "
.LC11:
	.string	"double +: "
.LC12:
	.string	"asm double +: "
.LC13:
	.string	"float +: "
.LC14:
	.string	"asm float +: "
	.text
	.globl	main
	.type	main, @function
main:
.LFB3594:
	.cfi_startproc
	endbr64
	push	rbp
	.cfi_def_cfa_offset 16
	.cfi_offset 6, -16
	mov	rbp, rsp
	.cfi_def_cfa_register 6
	sub	rsp, 64
	mov	DWORD PTR -52[rbp], edi
	mov	QWORD PTR -64[rbp], rsi
	pxor	xmm0, xmm0
	movsd	QWORD PTR -8[rbp], xmm0
	mov	DWORD PTR -40[rbp], 0
	jmp	.L41
.L42:
	movsd	xmm0, QWORD PTR .LC1[rip]
	mov	rax, QWORD PTR .LC2[rip]
	movapd	xmm1, xmm0
	movq	xmm0, rax
	call	_Z11mult_doubledd
	movsd	xmm1, QWORD PTR -8[rbp]
	addsd	xmm0, xmm1
	movsd	QWORD PTR -8[rbp], xmm0
	add	DWORD PTR -40[rbp], 1
.L41:
	cmp	DWORD PTR -40[rbp], 29999999
	jle	.L42
	lea	rax, .LC3[rip]
	mov	rsi, rax
	lea	rax, _ZSt4cout[rip]
	mov	rdi, rax
	call	_ZStlsISt11char_traitsIcEERSt13basic_ostreamIcT_ES5_PKc@PLT
	mov	rdx, rax
	movsd	xmm0, QWORD PTR -8[rbp]
	movsd	xmm1, QWORD PTR .LC4[rip]
	divsd	xmm0, xmm1
	movq	rax, xmm0
	movq	xmm0, rax
	mov	rdi, rdx
	call	_ZNSolsEd@PLT
	mov	rdx, rax
	lea	rax, .LC5[rip]
	mov	rsi, rax
	mov	rdi, rdx
	call	_ZStlsISt11char_traitsIcEERSt13basic_ostreamIcT_ES5_PKc@PLT
	mov	rdx, QWORD PTR _ZSt4endlIcSt11char_traitsIcEERSt13basic_ostreamIT_T0_ES6_@GOTPCREL[rip]
	mov	rsi, rdx
	mov	rdi, rax
	call	_ZNSolsEPFRSoS_E@PLT
	pxor	xmm0, xmm0
	movsd	QWORD PTR -8[rbp], xmm0
	mov	DWORD PTR -36[rbp], 0
	jmp	.L43
.L44:
	movsd	xmm0, QWORD PTR .LC1[rip]
	mov	rax, QWORD PTR .LC2[rip]
	movapd	xmm1, xmm0
	movq	xmm0, rax
	call	_Z15mult_double_asmdd
	movsd	xmm1, QWORD PTR -8[rbp]
	addsd	xmm0, xmm1
	movsd	QWORD PTR -8[rbp], xmm0
	add	DWORD PTR -36[rbp], 1
.L43:
	cmp	DWORD PTR -36[rbp], 29999999
	jle	.L44
	lea	rax, .LC6[rip]
	mov	rsi, rax
	lea	rax, _ZSt4cout[rip]
	mov	rdi, rax
	call	_ZStlsISt11char_traitsIcEERSt13basic_ostreamIcT_ES5_PKc@PLT
	mov	rdx, rax
	movsd	xmm0, QWORD PTR -8[rbp]
	movsd	xmm1, QWORD PTR .LC4[rip]
	divsd	xmm0, xmm1
	movq	rax, xmm0
	movq	xmm0, rax
	mov	rdi, rdx
	call	_ZNSolsEd@PLT
	mov	rdx, rax
	lea	rax, .LC5[rip]
	mov	rsi, rax
	mov	rdi, rdx
	call	_ZStlsISt11char_traitsIcEERSt13basic_ostreamIcT_ES5_PKc@PLT
	mov	rdx, QWORD PTR _ZSt4endlIcSt11char_traitsIcEERSt13basic_ostreamIT_T0_ES6_@GOTPCREL[rip]
	mov	rsi, rdx
	mov	rdi, rax
	call	_ZNSolsEPFRSoS_E@PLT
	pxor	xmm0, xmm0
	movsd	QWORD PTR -8[rbp], xmm0
	mov	DWORD PTR -32[rbp], 0
	jmp	.L45
.L46:
	movss	xmm1, DWORD PTR .LC7[rip]
	mov	eax, DWORD PTR .LC8[rip]
	movd	xmm0, eax
	call	_Z10mult_floatff
	cvtss2sd	xmm0, xmm0
	movsd	xmm1, QWORD PTR -8[rbp]
	addsd	xmm0, xmm1
	movsd	QWORD PTR -8[rbp], xmm0
	add	DWORD PTR -32[rbp], 1
.L45:
	cmp	DWORD PTR -32[rbp], 29999999
	jle	.L46
	lea	rax, .LC9[rip]
	mov	rsi, rax
	lea	rax, _ZSt4cout[rip]
	mov	rdi, rax
	call	_ZStlsISt11char_traitsIcEERSt13basic_ostreamIcT_ES5_PKc@PLT
	mov	rdx, rax
	movsd	xmm0, QWORD PTR -8[rbp]
	movsd	xmm1, QWORD PTR .LC4[rip]
	divsd	xmm0, xmm1
	movq	rax, xmm0
	movq	xmm0, rax
	mov	rdi, rdx
	call	_ZNSolsEd@PLT
	mov	rdx, rax
	lea	rax, .LC5[rip]
	mov	rsi, rax
	mov	rdi, rdx
	call	_ZStlsISt11char_traitsIcEERSt13basic_ostreamIcT_ES5_PKc@PLT
	mov	rdx, QWORD PTR _ZSt4endlIcSt11char_traitsIcEERSt13basic_ostreamIT_T0_ES6_@GOTPCREL[rip]
	mov	rsi, rdx
	mov	rdi, rax
	call	_ZNSolsEPFRSoS_E@PLT
	pxor	xmm0, xmm0
	movsd	QWORD PTR -8[rbp], xmm0
	mov	DWORD PTR -28[rbp], 0
	jmp	.L47
.L48:
	movss	xmm1, DWORD PTR .LC7[rip]
	mov	eax, DWORD PTR .LC8[rip]
	movd	xmm0, eax
	call	_Z14mult_float_asmff
	cvtss2sd	xmm0, xmm0
	movsd	xmm1, QWORD PTR -8[rbp]
	addsd	xmm0, xmm1
	movsd	QWORD PTR -8[rbp], xmm0
	add	DWORD PTR -28[rbp], 1
.L47:
	cmp	DWORD PTR -28[rbp], 29999999
	jle	.L48
	lea	rax, .LC10[rip]
	mov	rsi, rax
	lea	rax, _ZSt4cout[rip]
	mov	rdi, rax
	call	_ZStlsISt11char_traitsIcEERSt13basic_ostreamIcT_ES5_PKc@PLT
	mov	rdx, rax
	movsd	xmm0, QWORD PTR -8[rbp]
	movsd	xmm1, QWORD PTR .LC4[rip]
	divsd	xmm0, xmm1
	movq	rax, xmm0
	movq	xmm0, rax
	mov	rdi, rdx
	call	_ZNSolsEd@PLT
	mov	rdx, rax
	lea	rax, .LC5[rip]
	mov	rsi, rax
	mov	rdi, rdx
	call	_ZStlsISt11char_traitsIcEERSt13basic_ostreamIcT_ES5_PKc@PLT
	mov	rdx, QWORD PTR _ZSt4endlIcSt11char_traitsIcEERSt13basic_ostreamIT_T0_ES6_@GOTPCREL[rip]
	mov	rsi, rdx
	mov	rdi, rax
	call	_ZNSolsEPFRSoS_E@PLT
	pxor	xmm0, xmm0
	movsd	QWORD PTR -8[rbp], xmm0
	mov	DWORD PTR -24[rbp], 0
	jmp	.L49
.L50:
	movsd	xmm0, QWORD PTR .LC1[rip]
	mov	rax, QWORD PTR .LC2[rip]
	movapd	xmm1, xmm0
	movq	xmm0, rax
	call	_Z10add_doubledd
	movsd	xmm1, QWORD PTR -8[rbp]
	addsd	xmm0, xmm1
	movsd	QWORD PTR -8[rbp], xmm0
	add	DWORD PTR -24[rbp], 1
.L49:
	cmp	DWORD PTR -24[rbp], 29999999
	jle	.L50
	lea	rax, .LC11[rip]
	mov	rsi, rax
	lea	rax, _ZSt4cout[rip]
	mov	rdi, rax
	call	_ZStlsISt11char_traitsIcEERSt13basic_ostreamIcT_ES5_PKc@PLT
	mov	rdx, rax
	movsd	xmm0, QWORD PTR -8[rbp]
	movsd	xmm1, QWORD PTR .LC4[rip]
	divsd	xmm0, xmm1
	movq	rax, xmm0
	movq	xmm0, rax
	mov	rdi, rdx
	call	_ZNSolsEd@PLT
	mov	rdx, rax
	lea	rax, .LC5[rip]
	mov	rsi, rax
	mov	rdi, rdx
	call	_ZStlsISt11char_traitsIcEERSt13basic_ostreamIcT_ES5_PKc@PLT
	mov	rdx, QWORD PTR _ZSt4endlIcSt11char_traitsIcEERSt13basic_ostreamIT_T0_ES6_@GOTPCREL[rip]
	mov	rsi, rdx
	mov	rdi, rax
	call	_ZNSolsEPFRSoS_E@PLT
	pxor	xmm0, xmm0
	movsd	QWORD PTR -8[rbp], xmm0
	mov	DWORD PTR -20[rbp], 0
	jmp	.L51
.L52:
	movsd	xmm0, QWORD PTR .LC1[rip]
	mov	rax, QWORD PTR .LC2[rip]
	movapd	xmm1, xmm0
	movq	xmm0, rax
	call	_Z14add_double_asmdd
	movsd	xmm1, QWORD PTR -8[rbp]
	addsd	xmm0, xmm1
	movsd	QWORD PTR -8[rbp], xmm0
	add	DWORD PTR -20[rbp], 1
.L51:
	cmp	DWORD PTR -20[rbp], 29999999
	jle	.L52
	lea	rax, .LC12[rip]
	mov	rsi, rax
	lea	rax, _ZSt4cout[rip]
	mov	rdi, rax
	call	_ZStlsISt11char_traitsIcEERSt13basic_ostreamIcT_ES5_PKc@PLT
	mov	rdx, rax
	movsd	xmm0, QWORD PTR -8[rbp]
	movsd	xmm1, QWORD PTR .LC4[rip]
	divsd	xmm0, xmm1
	movq	rax, xmm0
	movq	xmm0, rax
	mov	rdi, rdx
	call	_ZNSolsEd@PLT
	mov	rdx, rax
	lea	rax, .LC5[rip]
	mov	rsi, rax
	mov	rdi, rdx
	call	_ZStlsISt11char_traitsIcEERSt13basic_ostreamIcT_ES5_PKc@PLT
	mov	rdx, QWORD PTR _ZSt4endlIcSt11char_traitsIcEERSt13basic_ostreamIT_T0_ES6_@GOTPCREL[rip]
	mov	rsi, rdx
	mov	rdi, rax
	call	_ZNSolsEPFRSoS_E@PLT
	pxor	xmm0, xmm0
	movsd	QWORD PTR -8[rbp], xmm0
	mov	DWORD PTR -16[rbp], 0
	jmp	.L53
.L54:
	movsd	xmm0, QWORD PTR .LC1[rip]
	mov	rax, QWORD PTR .LC2[rip]
	movapd	xmm1, xmm0
	movq	xmm0, rax
	call	_Z9add_floatdd
	movsd	xmm1, QWORD PTR -8[rbp]
	addsd	xmm0, xmm1
	movsd	QWORD PTR -8[rbp], xmm0
	add	DWORD PTR -16[rbp], 1
.L53:
	cmp	DWORD PTR -16[rbp], 29999999
	jle	.L54
	lea	rax, .LC13[rip]
	mov	rsi, rax
	lea	rax, _ZSt4cout[rip]
	mov	rdi, rax
	call	_ZStlsISt11char_traitsIcEERSt13basic_ostreamIcT_ES5_PKc@PLT
	mov	rdx, rax
	movsd	xmm0, QWORD PTR -8[rbp]
	movsd	xmm1, QWORD PTR .LC4[rip]
	divsd	xmm0, xmm1
	movq	rax, xmm0
	movq	xmm0, rax
	mov	rdi, rdx
	call	_ZNSolsEd@PLT
	mov	rdx, rax
	lea	rax, .LC5[rip]
	mov	rsi, rax
	mov	rdi, rdx
	call	_ZStlsISt11char_traitsIcEERSt13basic_ostreamIcT_ES5_PKc@PLT
	mov	rdx, QWORD PTR _ZSt4endlIcSt11char_traitsIcEERSt13basic_ostreamIT_T0_ES6_@GOTPCREL[rip]
	mov	rsi, rdx
	mov	rdi, rax
	call	_ZNSolsEPFRSoS_E@PLT
	pxor	xmm0, xmm0
	movsd	QWORD PTR -8[rbp], xmm0
	mov	DWORD PTR -12[rbp], 0
	jmp	.L55
.L56:
	movss	xmm1, DWORD PTR .LC7[rip]
	mov	eax, DWORD PTR .LC8[rip]
	movd	xmm0, eax
	call	_Z13add_float_asmff
	cvtss2sd	xmm0, xmm0
	movsd	xmm1, QWORD PTR -8[rbp]
	addsd	xmm0, xmm1
	movsd	QWORD PTR -8[rbp], xmm0
	add	DWORD PTR -12[rbp], 1
.L55:
	cmp	DWORD PTR -12[rbp], 29999999
	jle	.L56
	lea	rax, .LC14[rip]
	mov	rsi, rax
	lea	rax, _ZSt4cout[rip]
	mov	rdi, rax
	call	_ZStlsISt11char_traitsIcEERSt13basic_ostreamIcT_ES5_PKc@PLT
	mov	rdx, rax
	movsd	xmm0, QWORD PTR -8[rbp]
	movsd	xmm1, QWORD PTR .LC4[rip]
	divsd	xmm0, xmm1
	movq	rax, xmm0
	movq	xmm0, rax
	mov	rdi, rdx
	call	_ZNSolsEd@PLT
	mov	rdx, rax
	lea	rax, .LC5[rip]
	mov	rsi, rax
	mov	rdi, rdx
	call	_ZStlsISt11char_traitsIcEERSt13basic_ostreamIcT_ES5_PKc@PLT
	mov	rdx, QWORD PTR _ZSt4endlIcSt11char_traitsIcEERSt13basic_ostreamIT_T0_ES6_@GOTPCREL[rip]
	mov	rsi, rdx
	mov	rdi, rax
	call	_ZNSolsEPFRSoS_E@PLT
	mov	eax, 0
	leave
	.cfi_def_cfa 7, 8
	ret
	.cfi_endproc
.LFE3594:
	.size	main, .-main
	.section	.text._ZNSt6chrono20__duration_cast_implINS_8durationIlSt5ratioILl1ELl1000000EEEES2_ILl1ELl1000EElLb1ELb0EE6__castIlS2_ILl1ELl1000000000EEEES4_RKNS1_IT_T0_EE,"axG",@progbits,_ZNSt6chrono20__duration_cast_implINS_8durationIlSt5ratioILl1ELl1000000EEEES2_ILl1ELl1000EElLb1ELb0EE6__castIlS2_ILl1ELl1000000000EEEES4_RKNS1_IT_T0_EE,comdat
	.weak	_ZNSt6chrono20__duration_cast_implINS_8durationIlSt5ratioILl1ELl1000000EEEES2_ILl1ELl1000EElLb1ELb0EE6__castIlS2_ILl1ELl1000000000EEEES4_RKNS1_IT_T0_EE
	.type	_ZNSt6chrono20__duration_cast_implINS_8durationIlSt5ratioILl1ELl1000000EEEES2_ILl1ELl1000EElLb1ELb0EE6__castIlS2_ILl1ELl1000000000EEEES4_RKNS1_IT_T0_EE, @function
_ZNSt6chrono20__duration_cast_implINS_8durationIlSt5ratioILl1ELl1000000EEEES2_ILl1ELl1000EElLb1ELb0EE6__castIlS2_ILl1ELl1000000000EEEES4_RKNS1_IT_T0_EE:
.LFB3987:
	.cfi_startproc
	endbr64
	push	rbp
	.cfi_def_cfa_offset 16
	.cfi_offset 6, -16
	mov	rbp, rsp
	.cfi_def_cfa_register 6
	sub	rsp, 48
	mov	QWORD PTR -40[rbp], rdi
	mov	rax, QWORD PTR fs:40
	mov	QWORD PTR -8[rbp], rax
	xor	eax, eax
	mov	rax, QWORD PTR -40[rbp]
	mov	rdi, rax
	call	_ZNKSt6chrono8durationIlSt5ratioILl1ELl1000000000EEE5countEv
	mov	rcx, rax
	movabs	rdx, 2361183241434822607
	mov	rax, rcx
	imul	rdx
	mov	rax, rdx
	sar	rax, 7
	sar	rcx, 63
	mov	rdx, rcx
	sub	rax, rdx
	mov	QWORD PTR -24[rbp], rax
	lea	rdx, -24[rbp]
	lea	rax, -16[rbp]
	mov	rsi, rdx
	mov	rdi, rax
	call	_ZNSt6chrono8durationIlSt5ratioILl1ELl1000000EEEC1IlvEERKT_
	mov	rax, QWORD PTR -16[rbp]
	mov	rdx, QWORD PTR -8[rbp]
	sub	rdx, QWORD PTR fs:40
	je	.L60
	call	__stack_chk_fail@PLT
.L60:
	leave
	.cfi_def_cfa 7, 8
	ret
	.cfi_endproc
.LFE3987:
	.size	_ZNSt6chrono20__duration_cast_implINS_8durationIlSt5ratioILl1ELl1000000EEEES2_ILl1ELl1000EElLb1ELb0EE6__castIlS2_ILl1ELl1000000000EEEES4_RKNS1_IT_T0_EE, .-_ZNSt6chrono20__duration_cast_implINS_8durationIlSt5ratioILl1ELl1000000EEEES2_ILl1ELl1000EElLb1ELb0EE6__castIlS2_ILl1ELl1000000000EEEES4_RKNS1_IT_T0_EE
	.section	.text._ZNSt6chrono8durationIlSt5ratioILl1ELl1000000EEEC2IlvEERKT_,"axG",@progbits,_ZNSt6chrono8durationIlSt5ratioILl1ELl1000000EEEC5IlvEERKT_,comdat
	.align 2
	.weak	_ZNSt6chrono8durationIlSt5ratioILl1ELl1000000EEEC2IlvEERKT_
	.type	_ZNSt6chrono8durationIlSt5ratioILl1ELl1000000EEEC2IlvEERKT_, @function
_ZNSt6chrono8durationIlSt5ratioILl1ELl1000000EEEC2IlvEERKT_:
.LFB4118:
	.cfi_startproc
	endbr64
	push	rbp
	.cfi_def_cfa_offset 16
	.cfi_offset 6, -16
	mov	rbp, rsp
	.cfi_def_cfa_register 6
	mov	QWORD PTR -8[rbp], rdi
	mov	QWORD PTR -16[rbp], rsi
	mov	rax, QWORD PTR -16[rbp]
	mov	rdx, QWORD PTR [rax]
	mov	rax, QWORD PTR -8[rbp]
	mov	QWORD PTR [rax], rdx
	nop
	pop	rbp
	.cfi_def_cfa 7, 8
	ret
	.cfi_endproc
.LFE4118:
	.size	_ZNSt6chrono8durationIlSt5ratioILl1ELl1000000EEEC2IlvEERKT_, .-_ZNSt6chrono8durationIlSt5ratioILl1ELl1000000EEEC2IlvEERKT_
	.weak	_ZNSt6chrono8durationIlSt5ratioILl1ELl1000000EEEC1IlvEERKT_
	.set	_ZNSt6chrono8durationIlSt5ratioILl1ELl1000000EEEC1IlvEERKT_,_ZNSt6chrono8durationIlSt5ratioILl1ELl1000000EEEC2IlvEERKT_
	.text
	.type	_Z41__static_initialization_and_destruction_0ii, @function
_Z41__static_initialization_and_destruction_0ii:
.LFB4389:
	.cfi_startproc
	endbr64
	push	rbp
	.cfi_def_cfa_offset 16
	.cfi_offset 6, -16
	mov	rbp, rsp
	.cfi_def_cfa_register 6
	sub	rsp, 16
	mov	DWORD PTR -4[rbp], edi
	mov	DWORD PTR -8[rbp], esi
	cmp	DWORD PTR -4[rbp], 1
	jne	.L64
	cmp	DWORD PTR -8[rbp], 65535
	jne	.L64
	lea	rax, _ZStL8__ioinit[rip]
	mov	rdi, rax
	call	_ZNSt8ios_base4InitC1Ev@PLT
	lea	rax, __dso_handle[rip]
	mov	rdx, rax
	lea	rax, _ZStL8__ioinit[rip]
	mov	rsi, rax
	mov	rax, QWORD PTR _ZNSt8ios_base4InitD1Ev@GOTPCREL[rip]
	mov	rdi, rax
	call	__cxa_atexit@PLT
.L64:
	nop
	leave
	.cfi_def_cfa 7, 8
	ret
	.cfi_endproc
.LFE4389:
	.size	_Z41__static_initialization_and_destruction_0ii, .-_Z41__static_initialization_and_destruction_0ii
	.type	_GLOBAL__sub_I__Z11mult_doubledd, @function
_GLOBAL__sub_I__Z11mult_doubledd:
.LFB4390:
	.cfi_startproc
	endbr64
	push	rbp
	.cfi_def_cfa_offset 16
	.cfi_offset 6, -16
	mov	rbp, rsp
	.cfi_def_cfa_register 6
	mov	esi, 65535
	mov	edi, 1
	call	_Z41__static_initialization_and_destruction_0ii
	pop	rbp
	.cfi_def_cfa 7, 8
	ret
	.cfi_endproc
.LFE4390:
	.size	_GLOBAL__sub_I__Z11mult_doubledd, .-_GLOBAL__sub_I__Z11mult_doubledd
	.section	.init_array,"aw"
	.align 8
	.quad	_GLOBAL__sub_I__Z11mult_doubledd
	.section	.rodata
	.align 8
.LC1:
	.long	858993459
	.long	1071854387
	.align 8
.LC2:
	.long	0
	.long	1071644672
	.align 8
.LC4:
	.long	0
	.long	1098685496
	.align 4
.LC7:
	.long	1058642330
	.align 4
.LC8:
	.long	1056964608
	.hidden	__dso_handle
	.ident	"GCC: (Ubuntu 11.4.0-1ubuntu1~22.04) 11.4.0"
	.section	.note.GNU-stack,"",@progbits
	.section	.note.gnu.property,"a"
	.align 8
	.long	1f - 0f
	.long	4f - 1f
	.long	5
0:
	.string	"GNU"
1:
	.align 8
	.long	0xc0000002
	.long	3f - 2f
2:
	.long	0x3
3:
	.align 8
4:
